Turbo Assembler	 Version 3.2	    12/14/19 15:48:34	    Page 1
PT.asm



      1				     ; LIST OF CHANGES
      2				     ;
      3				     ; ALIGN 4
      4				     ;	AX  -  TOP
      5				     ;	SI  =  DSTACK
      6				     ;	DI  =  AREG
      7				     ;	DX  =  BREG
      8				     ;	BX  =  IPTR
      9				     ;	SP  =  STACK
     10				     ;
     11				     ;	BP, CX,	TEMPORARY USAGE
     12				     ;
     13				     ;	_U<:	CMP [SI],AX  ;
     14				     ;	_A2*:	SHL DI,1 ;
     15				     ;	_A2/C:	RCR DI,1 ;
     16				     ;	_0:	_DUP ; MOV AX,0
     17				     ;	_-1:	 _DUP ;	MOV AX,-1
     18				     ;
     19				     ;	_B<>S  XCHG DX,SI ;
     20				     ;	_B<>A  XCHG DX,DI ;
     21				     ;	_ANEXT:	 MOV  BP,[BX] ;	SKIP1; JMP  CS:[BP] ;
     22				     ;	_A++:	LEA  DI,[DI+WS]	;
     23				     ;	_A1+:	LEA  DI,[DI+1] ;
     24				     ;
     25				     ;	_B+:	LEA  DI,[DI+[SLOT]] ;
     26				     ;	_SKIP1:	 LEA  BX,[BX+2]	;
     27				     ;	_LIT!:	MOV [BX],AX ; _DROP ; SKIP1 ;
     28				     ;	_LIT:	_DUP ; MOV AX,[BX] ; SKIP1 ;
     29				     ;
     30				     ;	1
     31				     ;	_UNEXT:
     32				     ;	_EXIT:	RET	;
     33				     ;	_0;:	MOV CX,AX ; CXZ	IF _DROP ; EXIT	; THEN ;
     34				     ;	_?FOR:	OR AX,AX ; NZ, IF, ; CS-DROP ; _DROP ; JMP 'ADR	; THEN,	 1- ; FOR ;
     35				     ;	_;::	----------------
     36				     ;	_FOR:	MOV CX,AX ; _DROP ; BEGIN, ;
     37				     ;
     38				     ;	2
     39				     ;	_IF:	JE   'ADR ;
     40				     ;	_-IF:	JNM  'ADR ;
     41				     ;	_JUMP:	JMP  'ADR ;
     42				     ;	_CALL:	CALL 'ADR ;
     43				     ;	_NEXT:	DEC CX ;  JNE 'ADR ;
     44				     ;	_IFC:	 JNC   'ADR ;
     45				     ;
     46				     ;	3
     47				     ;	_DUP:	LEA  SI,[SI-WS]	 ;  MOV	[SI],AX	;
     48				     ;	_DROP:	LODSW	;
     49				     ;	_SWAP:	XCHG AX,[SI] ;
     50				     ;	_PUSH:	PUSH AX	; _DROP	;
     51				     ;	_POP:	_DUP ; POP  AX ;
     52				     ;	_IND:	_POP ; PUSH AX ;
     53				     ;
     54				     ;	4
     55				     ;	_OVER:	_DUP ;	MOV  AX,[SI+WS]	;
     56				     ;	_NIP:	LEA  SI,[SI+WS]	;
     57				     ;	_B:	_DUP ; MOV AX,DX ;
Turbo Assembler	 Version 3.2	    12/14/19 15:48:34	    Page 2
PT.asm



     58				     ;	_B!:	MOV  DX,AX ; _DROP ;
     59				     ;	_A:	_DUP ; MOV AX,DI ;
     60				     ;	_A!:	MOV  DI,AX ; _DROP ;
     61				     ;
     62				     ;	5
     63				     ;	_-!B:	MOV BP,DX ; MOV	CS:[BP-2],AX ; LEA DX,[BP-2] ; _DROP ;
     64				     ;	_@B+:	_DUP ; MOV BP,DX ; LEA DX,[BP+2] ; MOV AX,CS:[BP] ; _DROP ;
     65				     ;	_C!B:	OUT AL,DX ; _DROP ;
     66				     ;	_C@B:	_DUP  ;	 IN  AL,DX  ; MOV AH,0	;
     67				     ;	_!B:	OUT AX,DX ; _DROP ;
     68				     ;	_@B:	_DUP  ;	 IN  AX,DX ;
     69				     ;
     70				     ;	6
     71				     ;	_!A:	MOV [DI],AX ; _DROP ;
     72				     ;	_@A:	_DUP  ;	 MOV  AX,[DI]
     73				     ;	_@+:	_@ ; WINC ;
     74				     ;	_!+:	STOSW ;	_DROP ;
     75				     ;	_@:	A! ;  @A ;
     76				     ;	_!:	A!  ;  !A   ;
     77				     ;
     78				     ;	 7
     79				     ;	_C!A:	MOV [DI],AL ; _DROP ;
     80				     ;	_C@A:	_DUP  ;	 MOV  AL,[DI]  ; MOV AH,0  ;
     81				     ;	_C@+:	_C@ ; 1INC ;
     82				     ;	_C!+:	 STOSB	; _DROP	;
     83				     ;	_C@:	 A!  ;	C@A ;
     84				     ;	_C!:	 A!  ;	C!A   ;
     85				     ;
     86				     ;	 8
     87				     ;	_NEGATE:  NOT ;	1+ ;
     88				     ;	_+:	ADD [SI],AX  ;	_DROP ;
     89				     ;	_+C:	ADC [SI],AX  ;	_DROP ;
     90				     ;	_-:	SUB [SI],AX  ;	_DROP ;
     91				     ;	_M*;	B! ; IMUL DX ;
     92				     ;	_M/MOD:	MOV BP,AX ; _DROP ; IDIV BP ;
     93				     ;
     94				     ;	 9
     95				     ;	_AND:	AND [SI],AX  ;	_DROP ;
     96				     ;	_XOR:	XOR [SI],AX  ;	_DROP ;
     97				     ;	_OR:	OR  [SI],AX  ;	_DROP ;
     98				     ;	_INV:	NOT AX ;
     99				     ;	_+*:	TEST DI,1 ; IF ; ADD AX,[SI] ; THEN ; 2/C ; A2/C ;
    100				     ;	_-/:	A2* ; 2*C ; U< ; IFC ; SUB AX,[SI] ; A1+ ; THEN	;
    101				     ;
    102				     ;	10
    103				     ;	_2*:	SHL AX,1 ;
    104				     ;	_2/:	SAR AX,1 ;
    105				     ;	_2/C:	RCR AX,1 ;
    106				     ;	_2*C:	RCL AX,1 ;
    107				     ;	_1+:	INC  AX	;
    108				     ;	_1-:	DEC  AX	;
    109				     ;
    110				     ;	 :NONAME ; LITERAL IF UBTIL AGAIN ABORT" ."
    111				     ; : META '	' 2 CELLS + ! ;	\ AS IN	META 0BRANCH IF
    112
    113				     locals  @@
    114	      =	dword ptr	     pd	 equ dword ptr
Turbo Assembler	 Version 3.2	    12/14/19 15:48:34	    Page 3
PT.asm



    115	      =	word  ptr	     pw	 equ word  ptr
    116	      =	byte  ptr	     pb	 equ byte  ptr
    117
    118				     PushReg  MACRO
    119					     jmp  _PushAx
    120					   ENDM
    121				     SWAPREG MACRO
    122					      JMP _SWAPAX
    123					     ENDM
    124				     DROPREG MACRO
    125					      JMP XDROP
    126					     ENDM
    127				     SJMP  MACRO  ADDRS
    128					     jmp  SHORT	ADDRS
    129					   ENDM
    130				     next  MACRO
    131					     jmp  _next
    132					   ENDM
    133				     num   MACRO n
    134					       dw n + n	+ 80h
    135					   ENDM
    136				     ; X     MACRO
    137				     ;	       xchg sp,bp
    138				     ;	     ENDM
    139				     ;
    140				     ;-----------------
    141				     TRACE_OFF MACRO
    142					     mov  PB  _EX,097h
    143					   ENDM
    144
    145				     TRACE_ON MACRO
    146					     mov  PB _EX,0B9h
    147					   ENDM
    148				     ;-----------------
    149
    150	      =0000		     qqqqq = 0
    151	      =0000		     ppppp = qqqqq
    152
    153				     dstr2   macro   msg,flg
    154				       local endstr
    155				       db    endstr-$-1+flg
    156				       db    msg
    157				     endstr  label   byte
    158				       endm
    159
    160				     dstr    macro   msg
    161					  dstr2	msg,0
    162					     endm
    163
    164				     nf	     macro   token
    165				     ppppp = $
    166				       dstr2 token,0
    167				       dw    qqqqq
    168				     qqqqq = ppppp
    169				       endm
    170
    171				     nfi     macro   token
Turbo Assembler	 Version 3.2	    12/14/19 15:48:34	    Page 4
PT.asm



    172				     ppppp = $
    173				       dstr2 token,080h
    174				       dw    qqqqq
    175				     qqqqq = ppppp
    176				       endm
    177
    178	      =-1010		     FRST = 0-4*1024-4*4
    179	0000			     MyCseg  segment para  use16
    180					     assume cs:	MyCseg,	 ds: MyCseg, ss: MyCseg
    181
    182					     ORG 100H
    183
    184	0100			     Start   Label byte
    185					     SJMP   INITF1   ; 0
1   186	0100  EB 4C			     jmp  SHORT	INITF1
    187	0102  1BF8r		     INITV   DW	    _INIT    ; 2
    188	0104  1C11r		     RESETV  DW	    _ABORT   ; 4
    189	0106  0000		     DEBUGV  DW	    0	     ; 6
    190	0108  1339r		     COMPWV  DW	    TCOMMA   ; 8
    191
    192	010A  0000		     CrSP  dw	0
    193	010C  0000		     CrSS  dw	0
    194
    195	010E  0000		     Uv0     dw	  00000	;TWAKE
    196	0110  010Er		     UvNextT dw	  Uv0
    197	0112  EBF0		     UvCrSP  dw	  FRST-1024
    198	0114  EBF0		     UvS0    dw	  FRST-1024
    199	0116  EFF0		     UvR0    dw	  FRST
    200	0118  000A		     UvBASE  dw	  10
    201	011A  0000		     UvCURS  DW	  0
    202	011C  19*(0000)			     DW	  25 DUP (0)
    203
    204	014E  E8 000B		     INITF1: call XTOF_INI
    205	0151  E8 03A9			     CALL VEXEC
    206	0154  02			     DB	  INITV-START
    207
    208	0155  E8 001E		     XABORT: CALL XRESET
    209	0158  E8 03A2			     CALL VEXEC
    210	015B  04			     DB	  RESETV-START
    211
    212	015C			     XTOF_INI:
    213	015C  BE 0081			     MOV  SI,81H
    214	015F  33 DB			     XOR  BX,BX
    215	0161  8A 5C FF			     MOV  BL,[SI-1]
    216	0164  88 38			     MOV  [BX+SI],BH
    217	0166  BB 1000			     mov  bx,1000h
    218	0169  B4 4A			     mov  ah,4ah
    219	016B  CD 21			     int  21h
    220	016D  B4 0F			     MOV  AH,15
    221	016F  E8 06AA			     CALL _INT_10
    222	0172  88 3E 1A87r		     MOV  VPAG,BH
    223				     ;	     TRACE_OFF		      ;	!!!
    224
    225	0176  FA		     Xreset: cli
    226
    227				     ;	     TRACE_ON		     ; !!! START TRACE
    228	0177  5B			     POP  BX
Turbo Assembler	 Version 3.2	    12/14/19 15:48:34	    Page 5
PT.asm



    229	0178  8B 3E 068Fr		     MOV  DI,PW	USERV
    230	017C  8B 6D 08			     mov  bp,[DI+UvR0-Uv0]
    231	017F  8B 65 06			     mov  sp,[DI+UvS0-Uv0]
    232	0182  53			     PUSH BX
    233	0183  33 DB			     xor  BX,BX
    234	0185  FB			     sti
    235	0186  FC			     CLD
    236	0187  C3			     RET
    237
    238	0188  5F		     _DNEGAT:POP  DI
    239	0189  58			     POP  AX
    240	018A  F7 D0			     NOT  AX
    241	018C  F7 D3			     NOT  BX
    242	018E  40			     INC  AX
    243	018F  75 01			     JNE  @@1
    244	0191  43			     INC  BX
    245	0192  50		     @@1:    PUSH AX
    246	0193  FF E7			     JMP  DI
    247
    248	0195  56		     XRET4TH:PUSH  SI
    249	0196  8B 76 00		     popR:   MOV   SI,[BP]
    250	0199  8D 6E 02			     LEA   BP,[BP+2]
    251	019C  C3			     RET
    252
    253	019D  FF E6		     XFROMF: JMP   SI
    254				     ; STORAGE LOCATIONS FOR USER VARIABLES
    255
    256				     ; MTOP		      ;RESIDENT	PROGRAMS
    257				     ; MPTR		      ;MACRO
    258				     ; SPTR		      ;STRING STACK
    259				     ;
    260				     ; HEADERLESS EXECUTION CODE GOES HERE
    261
    262	019F  CC		     xbp:    int  3
    263	01A0  E9 00E2			     JMP  _next
    264
    265	01A3  5F		     XDOP:   POP   DI
    266	01A4  AD		     _DOP1:  lodsw
    267	01A5  B9 8000			     mov   Cx,8000h
    268	01A8  2B CF			     sub   Cx,DI
    269	01AA  03 D9			     add   Bx,Cx
    270	01AC  BF			     DB	   0BFH	 ; MOV DI,
    271	01AD  59		     X3TOR:  POP  CX
    272	01AE  58			     POP  AX
    273	01AF  EB 06			     JMP  SHORT	_3TOR
    274
    275	01B1			     xfor:   ; OR    BX,BX
    276	01B1  4B			     DEC   BX
    277					     ; je    XBR_DR
    278	01B2  7C 43			     jL	   XBR_DR
    279	01B4  AD			     LODSW
    280	01B5  8B CE			     MOV   CX,SI
    281	01B7  83 ED 06		     _3TOR:  SUB   BP,6
    282	01BA  89 46 04			     MOV   [BP+4],AX ;	PUSH  AX
    283	01BD  89 4E 02		     _2TOR:  MOV   [BP+2],CX ;	PUSH  SI
    284	01C0  B9			     DB	   0B9H
    285	01C1  4D		     XTOR:   DEC   BP
Turbo Assembler	 Version 3.2	    12/14/19 15:48:34	    Page 6
PT.asm



    286	01C2  4D			     DEC   BP
    287	01C3  89 5E 00		     X_TOR:  MOV   [BP],BX
    288					     dropREG
1   289	01C6  E9 00AC			      JMP XDROP
    290	01C9  4B		     XTIMES: DEC   BX
    291	01CA  7D 03			     JNL   XCONT
    292	01CC  5B			     POP   BX
    293					     SJMP  XEXIT
1   294	01CD  EB 37			     jmp  SHORT	XEXIT
    295
    296	01CF  53		     XCONT:  PUSH  BX
    297	01D0  8D 5C FE			     LEA   BX,[SI-2]
    298					     SJMP  XTOR
1   299	01D3  EB EC			     jmp  SHORT	XTOR
    300	01D5  8B 4E 00		     xnext:  MOV   CX,[BP]
    301	01D8  E3 29			     JCXZ  XLEAVE
    302	01DA  49			     DEC   CX
    303	01DB  89 4E 00			     MOV   [BP],CX
    304	01DE  8B 76 02			     MOV   SI,[BP+2]
    305					     next
1   306	01E1  E9 00A1			     jmp  _next
    307
    308	01E4  D1 E3		     X0LESS: SHL   BX,1
    309	01E6  1B DB		     XCARRY: SBB   BX,BX
    310	01E8  E9 009A			     JMP   _NEXT
    311
    312	01EB  0B DB		     XZBRAN: OR	   BX,BX
    313	01ED  74 08			     je	   XBR_DR
    314	01EF  E9 0082			     JMP   XPC2_DR
    315
    316	01F2  5F		     XDO:    pop   dI
    317	01F3  3B DF			     cmp   Bx,dI
    318	01F5  75 AD			     JNE   _DOP1
    319	01F7  5B		     XBR_DR: POP   BX
    320	01F8  8B 34		     XBRAN:  mov   si,[si]
    321	01FA  E9 0088			     JMP   _next
    322
    323	01FD  01 5E 00		     XPLOOP: ADD   [bp+0],BX
    324	0200  71 F5			     jno   XBR_DR
    325	0202  5B		     XLEAVDR:POP   BX
    326	0203  83 C5 04		     XLEAVE: add  bp,4
    327	0206  8B 76 00		     XEXIT:  mov  si,[bp+0]
    328	0209  45		     xrdrop: inc  bp
    329	020A  45			     inc  bp
    330	020B  EB 78			     JMP SHORT _NEXT
    331
    332	020D  FF 46 00		     XLOOP:  inc   word	ptr [bp+0]
    333	0210  71 E6			     jno   XBRAN
    334	0212  EB EF			     Jmp  short	XLEAVE
    335	0214  AF		     jsr4:   scasw
    336	0215  AF		     jsr3:   scasw
    337	0216  AF		     jsr2:   scasw
    338	0217  AF		     jsr1:   scasw
    339	0218  8D 6E FE		     JSR:    LEA  BP,[BP-2]
    340	021B  89 76 00			     MOV  [BP],SI
    341	021E  8B F7		     XJMP:   mov  si,di
    342	0220  46		     XPC2PLS:INC  SI
Turbo Assembler	 Version 3.2	    12/14/19 15:48:34	    Page 7
PT.asm



    343	0221  46		     XPC1PLS:INC  SI
    344	0222  EB 61			     JMP  SHORT	_next
    345	0224  58		     XOF:    POP  AX
    346	0225  93			     XCHG BX,AX
    347	0226  3B C3			     CMP  AX,BX
    348	0228  75 CE			     JNZ  XBRAN
    349	022A  EB 48			     JMP  SHORT	XPC2_DR
    350
    351	022C  0B DB		     XQDUP:  OR	  BX,BX
    352	022E  74 55			     JZ	  _NEXT
    353	0230  53		     XDUP:   PUSH BX
    354	0231  EB 52			     JMP  SHORT	_next
    355	0233  0B DB		     xAbs:   or	  bx,bx
    356	0235  79 05			     jns  xnegat2
    357	0237  F7 DB		     XNEGATE:NEG  BX
    358	0239  B9			     DB	  0B9H
    359	023A  F7 D3		     XNOT:   NOT  BX
    360	023C  EB 47		     XNEGAT2:JMP  SHORT	_next
    361	023E  58		     XAND:   POP  AX
    362	023F  23 D8			     AND  BX,AX
    363	0241  EB 42			     JMP  SHORT	_next
    364	0243  58		     XORE:   POP  AX
    365	0244  0B D8			     OR	  BX,AX
    366	0246  EB 3D			     JMP  SHORT	_next
    367	0248  58		     XXORX:  POP  AX
    368	0249  33 D8			     XOR  BX,AX
    369	024B  EB 38			     JMP  SHORT	_next
    370	024D  53		     XSPgT:  push BX
    371	024E  8B DC			     mov  bx,sp
    372	0250  EB 33			     jmp  short	_next
    373	0252  8B C5		     XRPgT:  MOV  ax,bp
    374	0254  EB 2D			     jmp  short	_pushax
    375	0256  8B E3		     XSPST:  MOV  SP,BX
    376	0258  B9			     DB	  0B9H
    377	0259  8B EB		     XRPST:  MOV  BP,BX
    378	025B  EB 18			     jmp  short	xDROP
    379	025D  F7 DB		     XSTRP:  NEG  BX
    380	025F  58		     XSTR:   POP  AX
    381	0260  59			     POP  CX
    382	0261  03 CB			     ADD  CX,BX
    383	0263  51			     PUSH CX
    384	0264  2B C3			     SUB  AX,BX
    385					     swapReg
1   386	0266  EB 1C 90			      JMP _SWAPAX
    387
    388	0269  F7 DB		     xsubt:  neg  bx
    389	026B  58		     XPLUS:  POP  AX
    390	026C  03 D8		     _plus:  ADD  BX,AX
    391	026E  EB 15			     JMP  SHORT	_next
    392
    393	0270  AF		     dovar2: scasw
    394	0271  AF		     dovar1: scasw
    395	0272  EB 0D		     DOVAR:  JMP  SHORT	DOVARZ
    396	0274  AD		     XPC2_DR:LODSW
    397	0275  5B		     xdrop:  pop  bx
    398	0276  EB 0D			     JMP  SHORT	_NEXT
    399	0278  AF			     scasw
Turbo Assembler	 Version 3.2	    12/14/19 15:48:34	    Page 8
PT.asm



    400	0279  AF			     scasw
    401	027A  8D 6E FE		     _does:  LEA  BP,[BP-2]
    402	027D  89 76 00			     MOV  [BP],si
    403	0280  5E			     POP  SI
    404	0281  AF		     DOVARZ: scasw
    405	0282  97		     _PUSHDI:xchg AX,DI
    406	0283  53		     _PushAx:PUSH BX
    407	0284  93		     _SwapAx:xchg BX,ax
    408	0285  AD		     _next:  lodsw
    409	0286  97		     _ex:    xchg di,ax
    410	0287  FF 25			     jmp  pw [di]
    411				     ; XCOMMA
    412	0289  E9 18D9			     JMP  DEBUGerr
    413
    414	028C  0B DB		     X0EXIT: OR	   BX,BX
    415	028E  5B			     POP   BX
    416	028F  75 F4			     JNE   _NEXT
    417	0291  E9 FF72			     JMP  XEXIT
    418
    419	0294  8F 07		     XSTORE2:POP  [BX]
    420	0296  43			     inc  bx
    421	0297  43			     inc  bx
    422	0298  8F 07		     XSTORE1:POP  [BX]
    423					     DROPREG
1   424	029A  EB D9			      JMP XDROP
    425	029C			     XSTOREA:	; L!
    426	029C  8F 47 02			     POP  [BX+2]
    427	029F  EB F7			     jmp  short	xstore1
    428	02A1  58		     XXORTO: POP  AX
    429	02A2  31 07			     XOR  [BX],AX
    430					     DROPREG
1   431	02A4  EB CF			      JMP XDROP
    432	02A6  B8 FFFF		     XM1STOR:MOV  AX,-1
    433	02A9  B9			     DB	  0B9H
    434	02AA  33 C0		     XZSTOR: XOR  AX,AX
    435	02AC  89 07			     MOV  [BX],AX	 ; NOT USED YET
    436					     DROPREG
1   437	02AE  EB C5			      JMP XDROP
    438	02B0  58		     XCSTOR: POP  AX
    439	02B1  88 07			     MOV  [BX],AL	 ; NOT USED YET
    440	02B3			     DDD:    DROPREG
1   441	02B3  EB C0			      JMP XDROP
    442
    443	02B5  87 5E 00		     XXCHG:  XCHG  BX,[BP]
    444					     NEXT
1   445	02B8  EB CB			     jmp  _next
    446	02BA  58		     XSWAP:  POP  AX
    447					     PushReg
1   448	02BB  EB C6			     jmp  _PushAx
    449	02BD  58		     XOVER:  POP  AX
    450	02BE  50			     PUSH AX
    451					     PushReg
1   452	02BF  EB C2			     jmp  _PushAx
    453	02C1  59 58		     XROT:   POP  CX aX	     ; ax cx bx->
    454	02C3  51			     PUSH CX	     ; cx bx ax
    455					     PushReg
1   456	02C4  EB BD			     jmp  _PushAx
Turbo Assembler	 Version 3.2	    12/14/19 15:48:34	    Page 9
PT.asm



    457	02C6  58 59		     XMROT:  POP  aX cX	     ; cx ax bx->
    458	02C8  53 51			     PUSH bx CX	     ; bx cx ax
    459					     swapReg
1   460	02CA  EB B8			      JMP _SWAPAX
    461	02CC  58		     XDUP2:  Pop  aX
    462	02CD  50			     push ax
    463	02CE  53			     PUSH BX
    464	02CF  50			     push ax
    465					     NEXT
1   466	02D0  EB B3			     jmp  _next
    467	02D2  58		     XTUCK:  POP  AX
    468	02D3  53			     PUSH BX
    469	02D4  50			     PUSH AX
    470					     NEXT
1   471	02D5  EB AE			     jmp  _next
    472	02D7  53		     XRFR:   PUSH  BX
    473	02D8  8B 5E 00			     MOV  BX,[BP]
    474	02DB  E9 FF2B			     JMP  XRDROP
    475	02DE  58		     xnip:   pop  ax
    476					     next
1   477	02DF  EB A4			     jmp  _next
    478	02E1  5B		     XDROP2: POP  BX
    479	02E2  EB 91			     JMP  XDROP
    480
    481	02E4  FF 0F		     XM2STO: DEC  pw [BX]
    482	02E6  FF 0F		     XM1STO: DEC  pw [BX]
    483					     DROPREG
1   484	02E8  EB 8B			      JMP XDROP
    485	02EA  FF 07		     XP2STO: INC  pw [BX]
    486	02EC  FF 07		     XP1STO: INC  pw [BX]
    487					     DROPREG
1   488	02EE  EB 85			      JMP XDROP
    489	02F0  B8 010Er		     @MYARY: MOV  AX,OFFSET Uv0
    490	02F3  50			     PUSH AX
    491	02F4  D1 E3		     MYARY:  SHL  BX,1
    492	02F6  E9 FF72		     MYARYB: JMP  XPLUS
    493
    494	02F9  AF		     DO2CON2:SCASW
    495	02FA  AF		     DO2CON1:SCASW
    496	02FB  AF		     DO2CON: SCASW
    497	02FC  53		     DO2CON0:PUSH BX
    498	02FD  8B DF			     MOV  BX,DI
    499	02FF  FF 77 02		     XTWOAT: PUSH [BX+2]
    500	0302  8B 1F		     xFETCH: MOV  BX,[BX]
    501					     NEXT
1   502	0304  E9 FF7E			     jmp  _next
    503
    504	0307  FF 37		     XTWOATA:PUSH  [BX]	    ; TO FADR
    505	0309  43			     inc   bx
    506	030A  43			     inc   bx
    507					     Sjmp  xfetch
1   508	030B  EB F5			     jmp  SHORT	xfetch
    509	030D  43		     XCOUNT: INC  BX
    510	030E  53			     PUSH BX
    511	030F  4B			     DEC  BX
    512	0310  8A 3F		     XCAT:   MOV  BH,[BX]
    513	0312  86 FB		     xhi:    xchg bh,bl
Turbo Assembler	 Version 3.2	    12/14/19 15:48:34	    Page 10
PT.asm



    514	0314  B7 00		     xlo:    MOV  BH,0
    515					     NEXT
1   516	0316  E9 FF6C			     jmp  _next
    517
    518	0319  8D 6E FE		     SUB4TH: LEA   BP,[BP-2]
    519	031C  89 76 00			     MOV   [BP],si
    520	031F  5E		     J4th:   POP   SI
    521					     NEXT
1   522	0320  E9 FF62			     jmp  _next
    523
    524	0323  53		     _Zero:  push bx
    525	0324  33 DB			     XOR  bx,BX
    526					     next
1   527	0326  E9 FF5C			     jmp  _next
    528	0329  53		     _m1:    push bx
    529	032A  33 DB			     XOR  bx,BX
    530	032C  B9			     db	  0b9h
    531	032D  4B			     DEC  BX
    532	032E  4B		     XTWOMI: DEC  BX
    533	032F  4B		     XONEMI: DEC  BX
    534	0330			     _0mi:   NEXT
1   535	0330  E9 FF52			     jmp  _next
    536
    537	0333  58		     XUCHK:  POP  AX
    538	0334  2B C3			     SUB  AX,BX
    539	0336  72 0E			     JC	  LCHK2
    540	0338  EB 08			     JMP  SHORT	LCHK1
    541	033A  58		     XCHK:   POP  AX
    542	033B  2B C3			     SUB  AX,BX
    543	033D  B9			     DB	  0B9H
    544	033E  0B DB		     XZCHK:  OR	  BX,BX
    545	0340  78 04			     JS	  LCHK2
    546	0342  74 03		     LCHK1:  JZ	  LCHK3
    547	0344  47			     INC  DI
    548	0345  B1			     DB	  0B1H
    549	0346  4F		     LCHK2:  DEC  DI
    550	0347  8A 45 03		     LCHK3:  MOV  AL,[DI+3]
    551	034A  98			     CBW
    552					     SWAPREG
1   553	034B  E9 FF36			      JMP _SWAPAX
    554	034E  43		     XSCAT:  INC  BX
    555	034F  53			     PUSH BX
    556	0350  8D 7F FC			     LEA  DI,[BX-4]
    557	0353  EB F2			     JMP  SHORT	LCHK3
    558
    559	0355  33 C0		     X2PWR:  XOR  AX,AX
    560	0357  40			     INC  AX
    561	0358  50			     PUSH AX
    562	0359  0B DB		     XSHIFT: OR	  BX,BX
    563	035B  8B CB			     MOV  CX,BX
    564	035D  5B			     POP  BX
    565	035E  79 0E			     JNS  X2STAR_
    566	0360  F7 D9			     NEG  CX
    567	0362  D3 EB			     shR  BX,CL
    568					     NEXT
1   569	0364  E9 FF1E			     jmp  _next
    570	0367  D1 EB		     X2SLS:  SHR  BX,1
Turbo Assembler	 Version 3.2	    12/14/19 15:48:34	    Page 11
PT.asm



    571					     NEXT
1   572	0369  E9 FF19			     jmp  _next
    573	036C  B1 01		     X2STAR: MOV  CL,1
    574	036E  D3 E3		     X2STAR_:SHL  BX,CL
    575					     NEXT
1   576	0370  E9 FF12			     jmp  _next
    577	0373  58		     XUMSTAR:POP  AX
    578	0374  F7 E3			     MUL  BX
    579	0376  50			     PUSH AX
    580	0377  8B DA			     MOV  BX,DX
    581					     NEXT
1   582	0379  E9 FF09			     jmp  _next
    583
    584	037C  E8 0023		     XRAT:   CALL _XSKPS
    585	037F  8B DE			     MOV  BX,SI
    586	0381  C3			     RET
    587	0382  E8 001D		     XRATPW: CALL _XSKPS
    588	0385  AD			     LODSW
    589	0386  93			     XCHG  AX,BX
    590	0387  C3			     RET
    591	0388  E8 0015		     XRATPB: CALL _XSKPS_0
    592	038B  AC			     LODSB
    593	038C  93			     XCHG  AX,BX
    594	038D  C3			     RET
    595	038E  E8 0011		     XSKPSW: CALL _XSKPS
    596	0391  8B DE			     mov  bx,si
    597	0393  AD			     lodsW
    598	0394  03 F0			     add  si,ax
    599	0396  C3			     RET
    600	0397  E8 0006		     XSKPS:  CALL _XSKPS_0
    601	039A  8B DE			     mov  bx,si
    602	039C  AC			     lodsb
    603	039D  03 F0			     add  si,ax
    604	039F  C3			     RET
    605	03A0  33 C0		     _XSKPS_0: xor  ax,ax
    606	03A2  59		     _XSKPS: POP  CX
    607	03A3  53			     push bx
    608	03A4  87 76 00			     xchg si,[bp]
    609	03A7  FF D1			     CALL CX
    610	03A9  87 76 00		     X_CO:   XCHG SI,[BP]
    611					     next
1   612	03AC  E9 FED6			     jmp  _next
    613
    614	03AF  59 58 5F		     XSWAP2: POP  cX aX	DI
    615	03B2  51 53 57		     _SWAP2Z:PUSH cX BX	DI
    616					     swapreg
1   617	03B5  E9 FECC			      JMP _SWAPAX
    618
    619	03B8  59 58 5F		     XOVER2: POP  cX aX	DI
    620	03BB  57 50			     PUSH DI aX	 ;cX BX	DI ;swapreg
    621	03BD  EB F3			     JMP  SHORT	_SWAP2Z
    622
    623	03BF  E8 FDC6		     XDMINUS:CALL _DNEGAT
    624	03C2  58		     XDPLUS: POP  AX
    625	03C3  5A			     POP  DX
    626	03C4  59			     POP  CX
    627	03C5  03 C8			     add Cx,Ax
Turbo Assembler	 Version 3.2	    12/14/19 15:48:34	    Page 12
PT.asm



    628	03C7  13 DA			     adC bx,Dx
    629	03C9  51			     PUSH CX
    630					     next
1   631	03CA  E9 FEB8			     jmp  _next
    632
    633	03CD  5A		     XUMSLSM:POP  dX
    634	03CE  33 C0			     XOR  AX,AX
    635	03D0  3B D3			     CMP  DX,BX
    636	03D2  73 04			     JNB  @@1
    637	03D4  58			     pop  AX
    638	03D5  F7 F3			     DIV  BX
    639	03D7  52			     PUSH DX
    640	03D8			     @@1:    swapreg
1   641	03D8  E9 FEA9			      JMP _SWAPAX
    642
    643	03DB  D1 E3		     xTary:  shl  bx,1
    644	03DD  03 FB		     x5ary:  ADD  DI,bx
    645	03DF  D1 E3		     xqary:  shl  bx,1
    646	03E1  D1 E3		     XWARY:  shl  BX,1
    647	03E3  03 DF		     XBARY:  ADD  BX,DI
    648	03E5  E9 049A			     JMP  ADRP2
    649
    650	03E8  0B DB		     xdabs:  or	  bx,bx
    651	03EA  79 03			     jns  no_abs
    652	03EC  E8 FD99		     XDNEGAT:CALL _DNEGAT
    653	03EF			     no_abs: NEXT
1   654	03EF  E9 FE93			     jmp  _next
    655
    656	03F2  33 FF		     XI:     XOR   DI,DI
    657	03F4  8B 03		     _ILOOP: mov   ax,[bp+0+DI]
    658	03F6  2B 43 02			     sub   ax,[bp+2+DI]
    659					     PushReg
1   660	03F9  E9 FE87			     jmp  _PushAx
    661
    662	03FC  58		     xcntdo: pop  ax
    663	03FD  03 D8			     add  bx,ax
    664	03FF  E9 FE81			     jmp  _pushax
    665
    666	0402  AF		     _CALL:  SCASW
    667	0403  FF D7			     CALL  DI
    668					     NEXT
1   669	0405  E9 FE7D			     jmp  _next
    670
    671	0408  59 5F 58		     _MOVER: POP  CX DI	AX
    672	040B  0E			     push cs
    673	040C  07			     pop  es
    674	040D  87 CB			     XCHG CX,BX
    675	040F  FF D3			     CALL BX
    676					     DROPREG
1   677	0411  E9 FE61			      JMP XDROP
    678
    679	0414  58		     XSTRPLS:POP  AX
    680	0415  8B 3F			     MOV  DI,[BX]
    681	0417  01 07			     ADD  [BX],AX
    682	0419  8D 79 02			     LEA  DI,[BX+DI+2]
    683	041C  EB 04			     JMP  SHORT	_XSTRST
    684	041E  58		     XSTRSTO:POP  AX
Turbo Assembler	 Version 3.2	    12/14/19 15:48:34	    Page 13
PT.asm



    685	041F  8B FB			     MOV  DI,BX
    686	0421  AB			     STOSW
    687	0422  57		     _XSTRST:PUSH DI
    688	0423  93			     XCHG AX,BX
    689
    690	0424  E8 FFE1		     XCMOVE: CALL _MOVER
    691	0427  96		     _move1: XCHG SI,AX
    692	0428  F3> A4			     rep  MOVSB
    693	042A  96			     XCHG SI,AX
    694	042B  FC			     CLD
    695	042C  C3		     _movex: RET
    696	042D  E8 FFD8		     XMOVE:  CALL _MOVER
    697	0430  3B F8		     SMARTM: CMP  DI,AX
    698	0432  76 F3			     JBE  _MOVE1
    699	0434  EB 03			     JMP  SHORT	_MOVEU
    700
    701	0436  E8 FFCF		     XCMOVUP:CALL _MOVER
    702	0439  03 F9		     _MOVEU: ADD  DI,CX
    703	043B  03 C1			     ADD  AX,CX
    704	043D  48			     DEC  AX
    705	043E  4F			     DEC  DI
    706	043F  FD			     STD
    707	0440  EB E5			     JMP  SHORT	_MOVE1
    708
    709	0442  53		     _FILLER:PUSH  BX
    710	0443  AF			     SCASW
    711	0444  8B 1D			     MOV   BX,[DI]
    712	0446  59		     xfill:  POP     CX
    713	0447  5F			     POP     DI
    714	0448  0E			     push cs
    715	0449  07			     pop  es
    716	044A  93			     xchg ax,bx
    717	044B  F3> AA			     REP  stosb
    718					     DROPREG
1   719	044D  E9 FE25			      JMP XDROP
    720
    721	0450  58		     _SCANER:POP  AX
    722	0451  93			     XCHG AX,BX
    723	0452  59			     POP  CX
    724	0453  5F			     POP  DI
    725	0454  0E			     push cs
    726	0455  07			     pop  es
    727	0456  8B D1			     MOV  DX,CX
    728	0458  FF D3			     CALL BX
    729	045A  74 02			     JE	  @@1
    730	045C  8B CA			     MOV  CX,DX
    731	045E  41		     @@1:    INC  CX
    732	045F  2B D1			     SUB  DX,CX
    733	0461  92			     XCHG AX,DX
    734					     SWAPREG
1   735	0462  E9 FE1F			      JMP _SWAPAX
    736
    737	0465  E8 FFE8		     XSCANW: CALL _SCANER
    738	0468  F2> AF			     REPNE SCASW
    739	046A  C3			     RET
    740	046B  E8 FFE2		     XSCANB: CALL _SCANER
    741	046E  F2> AE			     REPNE SCASB
Turbo Assembler	 Version 3.2	    12/14/19 15:48:34	    Page 14
PT.asm



    742	0470  C3			     RET
    743
    744	0471  E8 FFDC		     XSCANL: CALL _SCANER
    745	0474  56			     PUSH SI
    746	0475  0B DB			     OR	  BX,BX
    747	0477  93			     XCHG AX,BX
    748	0478  8B F7			     MOV  SI,DI
    749	047A  E3 09			     JCXZ @@3
    750	047C  8B FB		     @@2:    MOV  DI,BX
    751	047E  51			     PUSH CX
    752	047F  E8 0124			     CALL _STREQU
    753	0482  59			     POP  CX
    754	0483  E0 F7			     LOOPNE  @@2
    755	0485  5E		     @@3:    POP  SI
    756	0486  C3			     RET
    757
    758	0487  5F		     XMTEXT: POP  DI
    759	0488  58			     POP  AX
    760	0489  0E			     push cs
    761	048A  07			     pop  es
    762	048B  8B CB			     MOV  CX,BX
    763	048D  96			     XCHG AX,SI
    764	048E  E8 0120			     CALL _STRCMP
    765	0491  96			     XCHG AX,SI
    766	0492  74 0A			     JE	  @@1
    767	0494  2B C1			     SUB  AX,CX
    768	0496  93			     XCHG AX,BX
    769	0497  4F			     DEC  DI
    770	0498  8A 47 FF			     MOV  AL,[BX-1]
    771	049B  2A 05			     SUB  AL,[DI]
    772	049D  98			     CBW
    773	049E  91		     @@1:    XCHG AX,CX
    774					     SWAPREG
1   775	049F  E9 FDE2			      JMP _SWAPAX
    776
    777	04A2  58		     XSCANI: POP  AX
    778	04A3  96			     XCHG AX,SI
    779	04A4  33 C9			     XOR  CX,CX
    780	04A6  87 CB			     XCHG CX,BX
    781	04A8  E3 07			     JCXZ @@1
    782	04AA  8A 1C		     @@2:    MOV  BL,[SI]
    783	04AC  8D 70 01			     LEA  SI,[SI+BX+1]
    784	04AF  E2 F9			     LOOP @@2
    785	04B1  96		     @@1:    XCHG AX,SI
    786					     SWAPREG
1   787	04B2  E9 FDCF			      JMP _SWAPAX
    788
    789	04B5  8B 45 02		     XMINS@: mov  ax,[di+2]
    790	04B8  B1			     DB	  0B1H
    791	04B9  58		     XALLOTM:POP  AX
    792	04BA  F7 D8			     NEG  AX
    793	04BC  01 07		     _MINS@: ADD  PW [BX],ax
    794	04BE  8B 07			     MOV  AX,[BX]
    795					     SWAPREG
1   796	04C0  E9 FDC1			      JMP _SWAPAX
    797
    798	04C3  8B 45 02		     X@PLUS: mov  AX,[di+2]
Turbo Assembler	 Version 3.2	    12/14/19 15:48:34	    Page 15
PT.asm



    799	04C6  03 07		     _@PLUS: ADD  AX,[BX]
    800	04C8  87 07		     X2CHG:  XCHG PW [BX],AX
    801					     SWAPREG
1   802	04CA  E9 FDB7			      JMP _SWAPAX
    803
    804	04CD  58		     XATSWP2:POP  AX
    805	04CE  93			     XCHG AX,BX
    806	04CF  EB F7			     JMP  SHORT	X2CHG
    807	04D1  58		     X@PLSTO:POP  AX
    808	04D2  0B C0			     OR	  AX,AX
    809	04D4  78 E6			     JS	  _MINS@
    810	04D6  EB EE			     JMP  SHORT	_@PLUS
    811
    812	04D8  33 C0		     xUNpack:XOR   ax,AX
    813	04DA  86 C7			     xchg  Al,bh
    814					     PUSHREG
1   815	04DC  E9 FDA4			     jmp  _PushAx
    816	04DF  58		     xpack:  pop   ax
    817	04E0  86 DF			     xchg  bl,bh
    818	04E2  8A D8			     mov   bl,al
    819					     next
1   820	04E4  E9 FD9E			     jmp  _next
    821
    822	04E7  53		     CALL_D2:PUSH BX
    823	04E8  FF 55 02			     CALL PW [DI+2]
    824	04EB  5B			     POP  BX
    825					     NEXT
1   826	04EC  E9 FD96			     jmp  _next
    827
    828	04EF  93		     XaLPHA: XCHG AX,BX
    829	04F0  32 E4			     XOR  AH,AH
    830	04F2  3C 0A			     CMP  AL,10
    831	04F4  72 02			     JB	  @@1
    832	04F6  04 07			     ADD  AL,7
    833	04F8  04 30		     @@1:    ADD  AL,'0'
    834					     SWAPREG
1   835	04FA  E9 FD87			      JMP _SWAPAX
    836
    837	04FD  59		     VEXEC:  POP  CX
    838	04FE  53			     PUSH BX
    839	04FF  87 CB			     XCHG CX,BX
    840	0501  8A 0F			     MOV  CL,[BX]
    841	0503  B5 01			     MOV  CH,1
    842	0505  8B D9			     MOV  BX,CX
    843	0507  8B 1F		     XPERF:  MOV  bX,[BX]
    844	0509  0B DB		     xqexec: or	  bx,bx
    845	050B  74 09			     JZ	  X_set
    846	050D  93		     XEXEC:  XCHG AX,BX
    847	050E  5B			     POP  BX
    848	050F  E9 FD74		     _ex2:   jmp  _ex
    849
    850	0512  89 1E 068Fr	     xSetUv: mov  pw userv,bx
    851	0516			     x_set:  dropreg
1   852	0516  E9 FD5C			      JMP XDROP
    853
    854	0519  AC		     XBlit:  lodsb
    855	051A  32 E4		     push_al:xor  AH,ah
Turbo Assembler	 Version 3.2	    12/14/19 15:48:34	    Page 16
PT.asm



    856	051C  B1			     db	  0b1h
    857	051D  AD		     XLIT:   LODSW
    858					     PUSHREG
1   859	051E  E9 FD62			     jmp  _PushAx
    860
    861	0521  58		     ?NONAM1:POP  AX
    862	0522  5F			     POP  DI
    863	0523  57			     PUSH DI
    864	0524  AF			     SCASW
    865	0525  75 03			     JNE  _PSH2
    866	0527  58			     POP  AX
    867	0528  FF 35			     PUSH [DI]
    868	052A			     _psh2:  NEXT
1   869	052A  E9 FD58			     jmp  _next
    870
    871	052D  AF		     ExecAt2:scasw
    872	052E  AF		     ExecAt1:scasw
    873	052F  AF		     ExecAt: scasw
    874	0530  8B 0D		     ExecAt0:MOV  cx,[DI]   ;@addr
    875	0532  E3 F6			     jcxz _psh2
    876	0534  91			     xchg ax,cx
    877	0535  EB D8			     JMP  short	_ex2
    878
    879	0537  43		     XVBLK:  INC   BX		 ; : VBLK  DUP
    880	0538  74 04			     JZ	   @@1		 ;     -1 = IF DROP EXECAT EXIT	ELSE DUP
    881	053A  AF			     scasw		 ;	0 = IF DROP EXECAT1 EXIT ELSE
    882	053B  4B			     dec   BX		 ;	     EXECAT2
    883	053C  75 F0			     JNZ   execAt1	 ;	    THEN THEN ;
    884	053E  5B		     @@1:    POP   BX		 ;
    885	053F  EB EE			     jmp   short execAt	 ;
    886
    887	0541  43		     xqcomm: inc  bx
    888	0542  5B			     pop  bx
    889	0543  74 C8			     jz	  xEXEC
    890	0545  EB 0B			     JMP  SHORT	XEXQCOM	 ;
    891	0547  0B DB		     XNONA2: OR	  BX,BX
    892	0549  74 DF			     JE	  _PSH2
    893	054B  E8 FFD3			     CALL ?NONAM1
    894	054E  AF		     XNONAME:SCASW		 ;
    895	054F  53			     PUSH BX		 ;
    896	0550  8B 1D			     MOV  BX,[DI]	 ;
    897	0552  8B 3E 068Fr	     XEXQCOM:mov  di,PW	userv
    898	0556  8B 0E 1889r		     mov  cx,[UvStat]
    899	055A  E3 B1			     jcxz xEXEC
    900	055C  E8 FF9E			     CALL VEXEC
    901	055F  08			     DB	  COMPWV-START	; COMPILE
    902
    903	0560  8A 07		     xnamCf: mov   al,[bx]
    904	0562  25 001F			     and   ax,31
    905	0565  03 D8			     add   bx,ax
    906	0567  43		     ADRP3:  inc   bx
    907	0568  E9 0317			     jmp   ADRp2
    908
    909	056B			     X_FIND:
    910	056B  8B D6		       MOV   DX,SI
    911	056D			     @@1:
    912	056D  5E		       pop   si
Turbo Assembler	 Version 3.2	    12/14/19 15:48:34	    Page 17
PT.asm



    913	056E  46		       inc   si
    914	056F  75 04		       jne   @@2
    915	0571  53		       push  bx
    916	0572  96		       xchg  ax,si
    917	0573  EB 2C		       jmp   short @@8
    918	0575			     @@2:
    919	0575  4E		       dec   si
    920	0576  74 F5		       je    @@1
    921	0578			     @@3:
    922	0578  59		       pop   cx
    923	0579  3B F1		       cmp   si,cx
    924	057B  74 FB		       je    @@3
    925	057D  51		       push  cx
    926	057E			     @@4:
    927	057E  8B FB		       mov   di,bx
    928	0580  B9 001F		       mov   cx,31
    929	0583  E8 0023		       call  _strequ1
    930	0586  75 04		       jnz     @@5
    931	0588  A8 20		       test    al,20h
    932	058A  74 08		       jz      @@7
    933	058C			     @@5:
    934	058C  8B 34		       mov     si,[si]
    935	058E  0B F6		       or      si,si
    936	0590  75 EC		       jnz     @@4
    937	0592  EB D9		       jmp     short @@1
    938	0594			     @@7:
    939	0594  59		       pop   cx
    940	0595  41		       inc   cx
    941	0596  75 FC		       jne   @@7
    942	0598  46		       inc     si
    943	0599  46		       inc     si
    944	059A  56		       push  si
    945	059B  98		       cbw
    946	059C  F9		       stc
    947	059D  8A C4		       mov   al,ah
    948	059F  D1 D0		       rcl   ax,1
    949	05A1			     @@8:
    950	05A1  8B F2		       MOV   SI,DX
    951				       SWAPREG	     ; _FIND_
1   952	05A3  E9 FCDE			      JMP _SWAPAX
    953
    954	05A6			     _strequ:
    955	05A6  B9 00FF		       mov   cx,255
    956	05A9			     _strequ1:
    957	05A9  AC		       lodsb
    958	05AA  23 C8		       and     cx,ax
    959	05AC  3A 0D		       cmp     cl,[di]
    960	05AE  75 05		       jne     _l5
    961	05B0  47		       inc     di
    962	05B1			     _strcmp:
    963	05B1  F3> A6		       repe    cmpsb
    964	05B3  74 02		       jz      _l6
    965	05B5			     _l5:
    966	05B5  03 F1		       add     si,cx
    967	05B7  C3		     _l6:  ret
    968
    969	05B8  8B FB		     X_W:  mov	 di,bx ; _WORD ;
Turbo Assembler	 Version 3.2	    12/14/19 15:48:34	    Page 18
PT.asm



    970	05BA  5B			   pop	 bx	       ; >IN
    971	05BB  58			   pop	 ax	       ; TIB
    972	05BC  5A			   pop	 dx	       ; DELIMITTER
    973	05BD  57			   push	 di	       ; WHERE TO PLACE	WORD
    974	05BE  56			   push	 si	       ;
    975	05BF  33 F6			   xor	 si,si	       ;
    976	05C1  96			   xchg	 ax,si	       ;
    977	05C2  47			   inc	 di	       ;
    978	05C3  4B			   DEC	 BX	       ;
    979	05C4  43		     @@1:  INC	 BX	       ;
    980	05C5  8A 00			   mov	 al,[si+bx]    ;
    981	05C7  0A C0			   or	 al,al	       ; ZERO ?
    982	05C9  74 15			   je	 @@3	       ;
    983	05CB  3A C2			   cmp	 al,dl	       ;
    984	05CD  74 F5			   je	 @@1	       ;
    985	05CF  FE C4		     @@2:  inc	 ah	       ;
    986	05D1  AA			   stosb	       ;
    987	05D2  43			   inc	 bx	       ;
    988	05D3  8A 00			   mov	 al,[si+bx]    ;
    989	05D5  0A C0			   or	 al,al	       ;
    990	05D7  74 09			   je	 @@4	       ;
    991	05D9  3A C2			   cmp	 al,dl	       ;
    992	05DB  75 F2			   jNe	 @@2	       ;
    993	05DD  43			   inc	 bX	       ;
    994	05DE  EB 02			   JMP	 SHORT @@4     ;
    995	05E0  FE C4		     @@3:  INC	 AH	       ;
    996	05E2  B0 00		     @@4:  mov	 al,0	       ;
    997	05E4  AA			   stosb	       ;
    998	05E5  5E			   pop	 si	       ;
    999	05E6  5F			   pop	 di	       ;
   1000	05E7  57			   push	 di	       ;
   1001	05E8  88 25			   mov	 [di],ah       ;
   1002					   NEXT	 ; _WORD_      ;
1  1003	05EA  E9 FC98			     jmp  _next
   1004
   1005	05ED			     XC2I:   ;
   1006	05ED  8B CB		       mov   cx,bx   ; = 0
   1007	05EF  5A		       pop   Dx	     ; -1
   1008	05F0  5F		       pop   di	     ; base
   1009	05F1  58		       pop   AX
   1010	05F2  56		       PUSH  SI
   1011	05F3  96		       XCHG  AX,SI
   1012	05F4  46		       inc   si	     ; skip counter
   1013	05F5  80 3C 2D		       cmp   byte ptr [si],'-'
   1014	05F8  75 02		       jne   @@1
   1015	05FA  46		       inc   si
   1016	05FB  42		       inc   Dx
   1017	05FC			     @@1:
   1018	05FC  52		       push  Dx	     ; sign
   1019	05FD  E8 003D		       call  convn
   1020	0600			     @@2:
   1021	0600  8A 44 FF		       mov   al,[si-1]
   1022	0603  3C 3A		       cmp   al,':'
   1023	0605  74 08		       je    @@3
   1024	0607  3C 2F		       cmp   al,'/'
   1025	0609  77 12		       ja    outitoc
   1026	060B  3C 2C		       cmp   al,','
Turbo Assembler	 Version 3.2	    12/14/19 15:48:34	    Page 19
PT.asm



   1027	060D  72 0E		       jb    outitoc
   1028	060F			     @@3:
   1029	060F  56		       PUSH  SI
   1030	0610  E8 002A		       call  convn
   1031	0613  89 76 00		       MOV   PW	[BP],SI
   1032	0616  5A		       POP   DX
   1033	0617  42		       INC   DX
   1034	0618  29 56 00		       SUB   pw	[bp],DX	; dbl
   1035	061B  EB E3		       jmp   short @@2
   1036	061D			     outitoc:
   1037	061D  4E		       dec   si
   1038	061E  29 76 02		       sub   [bp+2],si
   1039	0621  58		       pop   ax
   1040	0622  5E		       pop   SI
   1041	0623  51		       push  cx
   1042				       PUSHREG
1  1043	0624  E9 FC5C			     jmp  _PushAx
   1044
   1045	0627  32 E4		     digit?: xor   ah,ah
   1046	0629  3C 39			     cmp   al,'9'
   1047	062B  76 08			     jbe   okdig
   1048	062D  24 DF			     and   al,0dfh
   1049	062F  3C 41			     cmp   al,'A'
   1050	0631  72 09			     jb	   notdig
   1051	0633  2C 07			     sub   al,7
   1052	0635  2C 30		     okdig:  sub   al,'0'
   1053	0637  72 03			     jb	   notdig
   1054	0639  3B C7			     cmp   ax,di
   1055	063B  F5			     cmc
   1056	063C  C3		     notdig: ret
   1057	063D  AC		     convn:  lodsb
   1058	063E  E8 FFE6			     call  digit?
   1059	0641  72 F9			     jc	   notdig
   1060	0643  50			     push  ax
   1061	0644  E8 0008			     call  _mul
   1062	0647  58			     pop   ax
   1063	0648  03 C8			     ADD   CX,AX
   1064	064A  73 F1			     JNC   CONVN
   1065	064C  43			     INC   BX
   1066	064D  EB EE			     jmp   short convn
   1067	064F  91		     _mul:   xchg  ax,cx
   1068	0650  F7 E7			     mul   di
   1069	0652  91			     xchg  cx,ax
   1070	0653  92			     xchg  dx,ax
   1071	0654  93			     xchg  bx,ax
   1072	0655  0B C0			     OR	   AX,AX
   1073	0657  74 04			     JE	   @@1
   1074	0659  F7 E7			     mul   di
   1075	065B  03 D8			     add   bx,ax
   1076	065D  C3		     @@1:    ret
   1077	065E  AF		     setvar2:scasw
   1078	065F  AF		     setvar1:scasw
   1079	0660  AF		     setvar: scasw
   1080	0661  89 1D		     setvar0:MOV   [DI],BX
   1081					     DROPREG
1  1082	0663  E9 FC0F			      JMP XDROP
   1083	0666  AF		     DOCON2: SCASW
Turbo Assembler	 Version 3.2	    12/14/19 15:48:34	    Page 20
PT.asm



   1084	0667  AF		     DOCON1: SCASW
   1085	0668  AF		     DOCON:  SCASW
   1086	0669  8B 05		     DOCON0: MOV  AX,[DI]
   1087					     PUSHREG
1  1088	066B  E9 FC15			     jmp  _PushAx
   1089	066E  E8 0019		     XUVAR@@:call  doUvar
   1090	0671  8B 3D			     MOV   DI,[DI]
   1091	0673  EB F4			     jmp   short doCon0
   1092	0675  AF		     XUVAR@: scasw
   1093	0676  E8 0010		     XUVAR@0:call  doUvar1
   1094	0679  EB EE			     jmp   short doCon0
   1095	067B  AF		     XtoUVAR:SCASW
   1096	067C  E8 000B		     XtoUVR: call  doUvar
   1097	067F  EB E0			     jmp   short Setvar0
   1098	0681  E8 0006		     X@UVAR: call  doUvar
   1099	0684  97			     xchg  ax,di
   1100					     pushReg
1  1101	0685  E9 FBFB			     jmp  _PushAx
   1102	0688  AF		     doUVAR2:scasw
   1103	0689  AF		     doUVAR1:scasw
   1104	068A  8B 7D 02		     doUVAR: mov   di,[di+2]
   1105	068D  81 C7 010Er	     DoUvar0:add   di,offset Uv0
   1106	      =MYCSEG:068F	     USERV   =	  $-2
   1107	0691  C3			     ret
   1108	0692			     TONAME:
   1109	0692  4F		       DEC DI
   1110	0693  B9 001F		       mov   cx,31
   1111	0696  4F		       DEC DI
   1112	0697  8B C1		       MOV AX,CX
   1113	0699  8B DF		       MOV BX,DI
   1114	069B			     @@1:
   1115	069B  4B		       DEC   BX
   1116	069C  FE C4		       INC   AH
   1117	069E  80 3F 20		       CMP   PB	[BX],32
   1118	06A1  76 0B		       JBE   @@4
   1119	06A3  8A 47 FF		       mov   al,[bx-1]
   1120	06A6  32 C4		       XOR   AL,AH
   1121	06A8  D0 E0		       SHL   AL,1
   1122	06AA  74 05		       je    @@3
   1123	06AC			     @@2:
   1124	06AC  E2 ED		       loop  @@1
   1125	06AE			     @@4:
   1126	06AE  33 DB		       XOR  bx,BX
   1127	06B0  41		       INC  CX
   1128	06B1			     @@3:
   1129	06B1  C3		       RET
   1130
   1131	06B2			     XFNAME:
   1132	06B2  8B FB		       MOV DI,BX
   1133	06B4  57		       PUSH DI
   1134	06B5  E8 FFDA		       CALL  TONAME
   1135	06B8  74 0E		       JE    TONAME2
   1136	06BA  E8 FFD5		       CALL  TONAME
   1137	06BD  74 09		       JE    TONAME2
   1138	06BF  E8 FFD0		       CALL  TONAME
   1139	06C2  74 04		       JE    TONAME2
   1140	06C4  5F		       POP  DI
Turbo Assembler	 Version 3.2	    12/14/19 15:48:34	    Page 21
PT.asm



   1141				       next
1  1142	06C5  E9 FBBD			     jmp  _next
   1143	06C8			     toname2:
   1144	06C8  4B		       DEC   BX
   1145	06C9  58		       POP   AX
   1146	06CA  47		       INC   DI
   1147	06CB  53		       push  bx
   1148	06CC  2B C7		       SUB   AX,DI
   1149				       swapreg
1  1150	06CE  E9 FBB3			      JMP _SWAPAX
   1151
   1152	06D1  2B 1E 16D0r	     XSWPSTO:SUB BX,DADR+4
   1153				     ;XSWPSTO:
   1154	06D5  5F			     POP   DI
   1155	06D6  89 1D			     MOV   [DI],BX
   1156					     DROPREG
1  1157	06D8  E9 FB9A			      JMP XDROP
   1158
   1159	06DB  8B 07		     XWCOUNT:MOV   AX,[BX]
   1160	06DD  43			     INC   BX
   1161	06DE  43			     INC   BX
   1162					     PUSHREG
1  1163	06DF  E9 FBA1			     jmp  _PushAx
   1164
   1165	06E2  58		     XMULT2: POP   AX
   1166	06E3  F7 EB			     IMUL  BX
   1167	06E5  50			     PUSH  AX
   1168	06E6  8B DA			     MOV   BX,DX
   1169					     NEXT
1  1170	06E8  E9 FB9A			     jmp  _next
   1171
   1172	06EB  58		     XDIVMOD:POP   AX
   1173	06EC  99			     CWD
   1174	06ED  F7 FB			     IDIV   BX
   1175	06EF  52			     PUSH  DX
   1176					     SWAPREG
1  1177	06F0  E9 FB91			      JMP _SWAPAX
   1178
   1179	06F3  58		     XDIV:   POP   AX
   1180	06F4  99			     CWD
   1181	06F5  F7 FB			     IDIV  BX
   1182					     SWAPREG
1  1183	06F7  E9 FB8A			      JMP _SWAPAX
   1184
   1185	06FA  58		     XMOD:   POP   AX
   1186	06FB  99			     CWD
   1187	06FC  F7 FB			     IDIV  BX
   1188	06FE  8B DA			     MOV   BX,DX
   1189					     NEXT
1  1190	0700  E9 FB82			     jmp  _next
   1191
   1192					     ; -----------  IO	PRIMITIVES  vvvvvvvvvvv
   1193				       NF '''EMIT'
1  1194	      =MYCSEG:0703	     ppppp = $
1  1195				       dstr2 '''EMIT',0
2  1196	0703  05		       db    ??0000-$-1+0
2  1197	0704  27 45 4D 49 54	       db    '''EMIT'
Turbo Assembler	 Version 3.2	    12/14/19 15:48:34	    Page 22
PT.asm



2  1198	0709			     ??0000  label   byte
1  1199	0709  0000		       dw    qqqqq
1  1200	      =MYCSEG:0703	     qqqqq = ppppp
   1201	070B  052Dr 065Fr 0272r	  +  VEMIT DW  ExecAt2,SETVAR1,DOVAR,0
   1202	      0000
   1203
   1204	0713  BF 0EACr		     _HND_GT:mov  DI,offset handles
   1205	0716  8B CF		     cnt_GT0:mov  cx,di
   1206	0718  8B 3D			     mov  di,[di]
   1207	071A  D1 E7			     shl  di,1
   1208	071C  03 F9			     add  di,cx
   1209	071E  8B 05			     mov  Ax,[DI]
   1210	0720  C3			     RET
   1211
   1212	0721  AF		     _HND_AT:scasw
   1213	0722  E8 FFF1			     CALL cnt_GT0
   1214	0725  87 CF			     xchg cx,di
   1215	0727  FF 0D			     DEC  pw [di]
   1216					     PUSHREG
1  1217	0729  E9 FB57			     jmp  _PushAx
   1218
   1219	072C  83 C7 04		     _HND_TO:add  di,4
   1220	072F  FF 05			     inc  pw [di]
   1221	0731  E8 FFE2			     CALL cnt_GT0
   1222	0734  89 1D			     mov  [DI],BX
   1223					     DROPREG
1  1224	0736  E9 FB3C			      JMP XDROP
   1225
   1226	0739  8B D3		     XOPEN:  MOV DX,BX
   1227	073B  B8 3D02			     MOV AX,3D02H
   1228	073E  B9			     DB	 0B9H
   1229	073F  B4 3E		     XCLOSE: MOV AH,3EH
   1230	0741  CD 21		     XDOS1:  INT 21H
   1231	0743  73 02			     JNC @@1
   1232	0745  F7 D0			     NOT AX
   1233	0747			     @@1:    SWAPREG
1  1234	0747  E9 FB3A			      JMP _SWAPAX
   1235
   1236	074A  B4 01		     XQKEY:  MOV  AH,01h
   1237	074C  CD 16			     INT  016h
   1238	074E  B0 FF			     MOV  AL,0FFH
   1239	0750  75 01			     JNE  @@1
   1240	0752  40			     INC  AX
   1241	0753  98		     @@1:    CBW
   1242					     PUSHREG
1  1243	0754  E9 FB2C			     jmp  _PushAx
   1244
   1245	0757  B4 0B		     XQKEY2: MOV  AH,0Bh
   1246	0759  CD 21			     INT  021h
   1247	075B  98			     CBW
   1248					     PUSHREG
1  1249	075C  E9 FB24			     jmp  _PushAx
   1250
   1251	075F  E8 FFB1		     _key2:  CALL _hnd_GT
   1252	0762  93			     XCHG AX,BX
   1253	0763  B9 0001		     @@4:    mov  cx,1
   1254	0766  8B 3E 0D77r		     mov  DI,LASTCH
Turbo Assembler	 Version 3.2	    12/14/19 15:48:34	    Page 23
PT.asm



   1255	076A  BA 0D77r			     mov  dx,OFFSET LASTCH
   1256	076D  B4 3F			     mov  ah,3fh
   1257	076F  CD 21			     int  21h
   1258	0771  0B C0			     OR	  ax,Ax
   1259	0773  74 1E			     jz	  @@2
   1260	0775  A1 0D77r			     mov  Ax,LASTCH
   1261	0778  3C 20			     cmp  al,' '
   1262	077A  73 16			     jae  @@1
   1263	077C  3C 1A			     cmp  al,1Ah
   1264	077E  74 13			     je	  @@2
   1265	0780  3C 0D			     cmp  al,0dh
   1266	0782  74 0E			     je	  @@1
   1267	0784  3C 0A			     cmp  al,0Ah
   1268	0786  75 08			     jNe  @@3
   1269	0788  83 FF 0D			     CMP  DI,0DH
   1270	078B  74 D6			     JE	  @@4
   1271	078D  B0 0D			     MOV  AL,0DH
   1272	078F  C3			     RET
   1273	0790  B0 20		     @@3:    mov  al,' '
   1274	0792  C3		     @@1:    ret
   1275	0793  E9 0728		     @@2:    JMP  XDROPH1
   1276
   1277				       NF 'IOV'
1  1278	      =MYCSEG:0796	     ppppp = $
1  1279				       dstr2 'IOV',0
2  1280	0796  03		       db    ??0001-$-1+0
2  1281	0797  49 4F 56		       db    'IOV'
2  1282	079A			     ??0001  label   byte
1  1283	079A  0703r		       dw    qqqqq
1  1284	      =MYCSEG:0796	     qqqqq = ppppp
   1285	079C  0272r		     ioV     DW	 DOVAR
   1286	079E  0817r		     JKEY    DW	     _key1
   1287	07A0  07F3r		     JEMIT   DW	     _emit1
   1288
   1289				       NF 'IOV!'
1  1290	      =MYCSEG:07A2	     ppppp = $
1  1291				       dstr2 'IOV!',0
2  1292	07A2  04		       db    ??0002-$-1+0
2  1293	07A3  49 4F 56 21	       db    'IOV!'
2  1294	07A7			     ??0002  label   byte
1  1295	07A7  0796r		       dw    qqqqq
1  1296	      =MYCSEG:07A2	     qqqqq = ppppp
   1297	07A9  0218r 150Br		     DW	 JSR,TCODESEMI
   1298	07AD  E8 FACA		     _gs_ke: CALL _DOES
   1299	07B0  09DAr 079Cr 09CDr	  +	     DW	 TTWOAT,IOV,TSTORE2,TEXIT
   1300	      08C3r
   1301
   1302				      NF 'SIO'
1  1303	      =MYCSEG:07B8	     ppppp = $
1  1304				       dstr2 'SIO',0
2  1305	07B8  03		       db    ??0003-$-1+0
2  1306	07B9  53 49 4F		       db    'SIO'
2  1307	07BC			     ??0003  label   byte
1  1308	07BC  07A2r		       dw    qqqqq
1  1309	      =MYCSEG:07B8	     qqqqq = ppppp
   1310	07BE  07ADr 0817r 07F3r	     STDIO:  DW	   _gs_ke,_key1,_emit1
   1311
Turbo Assembler	 Version 3.2	    12/14/19 15:48:34	    Page 24
PT.asm



   1312				       NF 'FIO'
1  1313	      =MYCSEG:07C4	     ppppp = $
1  1314				       dstr2 'FIO',0
2  1315	07C4  03		       db    ??0004-$-1+0
2  1316	07C5  46 49 4F		       db    'FIO'
2  1317	07C8			     ??0004  label   byte
1  1318	07C8  07B8r		       dw    qqqqq
1  1319	      =MYCSEG:07C4	     qqqqq = ppppp
   1320	07CA  07ADr 075Fr 07F3r	     FILEIO: DW	   _gs_ke,_key2,_emit1
   1321
   1322				       NF 'MIO'
1  1323	      =MYCSEG:07D0	     ppppp = $
1  1324				       dstr2 'MIO',0
2  1325	07D0  03		       db    ??0005-$-1+0
2  1326	07D1  4D 49 4F		       db    'MIO'
2  1327	07D4			     ??0005  label   byte
1  1328	07D4  07C4r		       dw    qqqqq
1  1329	      =MYCSEG:07D0	     qqqqq = ppppp
   1330	07D6  07ADr 0817r 07FAr	     MEMIO:  DW	   _gs_ke,_key1,_emit2
   1331
   1332	07DC  B0 20		     xblank: mov  al,' '
   1333	07DE  53			     push bx
   1334	07DF  93			     xchg ax,bx
   1335	07E0  FF 16 07A0r	     XEMIT:  call PW [jemit]
   1336	07E4  E8 12C2			     CALL OUTC_1P
   1337					     DROPREG
1  1338	07E7  E9 FA8B			      JMP XDROP
   1339	07EA  F6 C3 E0		     X?EMIT: TEST BL,-32
   1340	07ED  75 F1			     JNZ  XEMIT
   1341	07EF  B3 2E			     MOV  BL,'.'
   1342					     SJMP XEMIT
1  1343	07F1  EB ED			     jmp  SHORT	XEMIT
   1344
   1345	07F3  8A D3		     _EMIT1: MOV  DL,BL
   1346	07F5  B4 02			     MOV  AH,2
   1347	07F7  CD 21			     INT  021h
   1348	07F9  C3			     ret
   1349
   1350	07FA			     _EMIT2:
   1351	07FA  E8 FB1C			     CALL SUB4TH
   1352	07FD  070Br 08CCr		     DW	VEMIT,TRETF
   1353	0801  C3			     ret
   1354
   1355	0802  53		     XKEY:   PUSH BX
   1356	0803  FF 16 079Er		     call PW [jkey]
   1357					     SWAPREG
1  1358	0807  E9 FA7A			      JMP _SWAPAX
   1359
   1360				      NF 'BIOS-KEY'
1  1361	      =MYCSEG:080A	     ppppp = $
1  1362				       dstr2 'BIOS-KEY',0
2  1363	080A  08		       db    ??0006-$-1+0
2  1364	080B  42 49 4F 53 2D 4B	45+    db    'BIOS-KEY'
   1365	      59
2  1366	0813			     ??0006  label   byte
1  1367	0813  07D0r		       dw    qqqqq
1  1368	      =MYCSEG:080A	     qqqqq = ppppp
Turbo Assembler	 Version 3.2	    12/14/19 15:48:34	    Page 25
PT.asm



   1369	0815  0402r		     _BKEY:  DW	  _CALL
   1370	0817  B4 00		     _KEY1:  MOV  AH,0
   1371	0819  CD 16			     INT  016h
   1372	081B  C3			     ret
   1373
   1374	081C  55		     _INT_10:PUSH  BP
   1375	081D  CD 10			     INT   10H
   1376	081F  5D			     POP   BP
   1377	0820  C3			     RET
   1378	0821  50		     _V_PAGE:PUSH  AX
   1379	0822  B4 0F			     MOV   AH,15
   1380	0824  E8 FFF5			     CALL  _INT_10
   1381	0827  5A			     POP   DX
   1382	0828  C3			     RET
   1383
   1384	0829  58		     CURSIZE:POP   AX
   1385	082A  8A E3			     MOV   AH,BL
   1386	082C  B5 01			     MOV   CH,1
   1387	082E  91			     XCHG  AX,CX
   1388	082F  E8 FFEA			     CALL  _INT_10
   1389					     DROPREG
1  1390	0832  E9 FA40			      JMP XDROP
   1391
   1392	0835  53		     GETCURS:PUSH  BX	;CALL  _V_PAGE
   1393	0836  8A 3E 1A87r		     MOV   BH,VPAG
   1394	083A  B4 03			     MOV   AH,3
   1395	083C  E8 FFDD			     CALL  _INT_10
   1396	083F  52			     PUSH  DX
   1397	0840  8B D9			     MOV   BX,CX
   1398					     NEXT
1  1399	0842  E9 FA40			     jmp  _next
   1400
   1401	0845  5A		     XY_GOTO:POP   DX
   1402	0846  8A F3			     MOV   DH,BL
   1403	0848  8A 3E 1A87r		     MOV   BH,VPAG
   1404	084C  B4 02			     MOV   AH,2	 ; CALL	 _V_PAGE
   1405	084E  E8 FFCB			     CALL  _INT_10
   1406					     DROPREG
1  1407	0851  E9 FA21			      JMP XDROP
   1408
   1409	0854  53		     XCLRSCR:PUSH  BX
   1410	0855  8A 3E 1A86r		     MOV   BH,ATTR
   1411	0859  B6 18			     MOV   DH,24
   1412	085B  B2 4F			     MOV   DL,79
   1413	085D  B8 0600			     MOV   AX,600H
   1414	0860  33 C9			     XOR   CX,CX
   1415	0862  E8 FFB7			     CALL  _INT_10
   1416					     DROPREG
1  1417	0865  E9 FA0D			      JMP XDROP
   1418
   1419					     ; -----------  IO	PRIMITIVES  ^^^^^^^^^^^^^^^
   1420
   1421	0868  8C D0		     X?SS:   MOV     AX,Ss
   1422	086A  B9			     DB	   0B9H
   1423	086B  8C C8		     X?CS:   MOV     AX,cs
   1424					     PUSHREG
1  1425	086D  E9 FA13			     jmp  _PushAx
Turbo Assembler	 Version 3.2	    12/14/19 15:48:34	    Page 26
PT.asm



   1426
   1427	0870  5F		     XC@SWAP:POP   DI
   1428	0871  8A 05		     @@2:    MOV   AL,[DI]
   1429	0873  4B			     DEC   BX
   1430	0874  3B FB			     CMP   DI,BX
   1431	0876  73 05			     JNC   @@1
   1432	0878  86 07			     XCHG  AL,[BX]
   1433	087A  AA			     STOSB
   1434	087B  EB F4			     JMP   @@2
   1435	087D			     @@1:    DROPREG
1  1436	087D  E9 F9F5			      JMP XDROP
   1437
   1438	0880  8F 07		     XADRSP2: POP PW [BX]
   1439	0882  43		     ADRP2:   INC  BX
   1440	0883  43		     ADRP1:   INC  BX
   1441					      NEXT
1  1442	0884  E9 F9FE			     jmp  _next
   1443	0887  58		     XADRSP1: POP  AX
   1444	0888  88 07			      MOV  [BX],AL
   1445	088A  EB F7			      JMP  SHORT ADRP1
   1446	088C  33 C0		     CFCH_P1:  XOR  AX,AX
   1447	088E  8A 07			      MOV  AL,[BX]
   1448	0890  50			      PUSH AX
   1449	0891  EB F0			      JMP  SHORT ADRP1
   1450	0893  FF 37		     FCH_P2:  PUSH PW [BX]
   1451	0895  EB EB			      JMP  SHORT ADRP2
   1452
   1453	0897  58		     XTOAND: POP AX
   1454	0898  21 07			     AND [BX],AX
   1455					     DROPREG
1  1456	089A  E9 F9D8			      JMP XDROP
   1457	089D  58		     XTOORE: POP AX
   1458	089E  09 07			     OR	 [BX],AX
   1459					     DROPREG
1  1460	08A0  E9 F9D2			      JMP XDROP
   1461	08A3  58		     XPSTORE:POP  AX
   1462	08A4  01 07			     ADD  [BX],AX
   1463					     DROPREG
1  1464	08A6  E9 F9CC			      JMP XDROP
   1465
   1466	08A9  8A C3		     XBYE:  MOV	AL,BL
   1467	08AB  B4 4C		       MOV AH,4CH
   1468	08AD  CD 21		       INT 21H
   1469
   1470				     ; CODEMARK	- END OF CODE
   1471
   1472				     ; COMPILATION WORDS
   1473
   1474				     ;--------------------vvvvvvv  CONTROL vvvvvvv--------------
   1475	      =MYCSEG:08AF	     ppppp = $
   1476	08AF  0081 080Ar 0206r	       dw    81h,qqqqq,XEXIT
   1477	      =MYCSEG:08AF	     qqqqq = ppppp
   1478
   1479				       NF '0;'
1  1480	      =MYCSEG:08B5	     ppppp = $
1  1481				       dstr2 '0;',0
2  1482	08B5  02		       db    ??0007-$-1+0
Turbo Assembler	 Version 3.2	    12/14/19 15:48:34	    Page 27
PT.asm



2  1483	08B6  30 3B		       db    '0;'
2  1484	08B8			     ??0007  label   byte
1  1485	08B8  08AFr		       dw    qqqqq
1  1486	      =MYCSEG:08B5	     qqqqq = ppppp
   1487	08BA  028Cr		     EXIT0  DW X0EXIT
   1488
   1489				      nf 'EXIT'
1  1490	      =MYCSEG:08BC	     ppppp = $
1  1491				       dstr2 'EXIT',0
2  1492	08BC  04		       db    ??0008-$-1+0
2  1493	08BD  45 58 49 54	       db    'EXIT'
2  1494	08C1			     ??0008  label   byte
1  1495	08C1  08B5r		       dw    qqqqq
1  1496	      =MYCSEG:08BC	     qqqqq = ppppp
   1497	08C3  0206r		     texit   DW	  XEXIT	     ; EXIT
   1498
   1499				      NF ';4TH'
1  1500	      =MYCSEG:08C5	     ppppp = $
1  1501				       dstr2 ';4TH',0
2  1502	08C5  04		       db    ??0009-$-1+0
2  1503	08C6  3B 34 54 48	       db    ';4TH'
2  1504	08CA			     ??0009  label   byte
1  1505	08CA  08BCr		       dw    qqqqq
1  1506	      =MYCSEG:08C5	     qqqqq = ppppp
   1507	08CC  0195r		     tretf   DW	  XRET4TH    ; R4TH>
   1508
   1509				      NF 'BYE'
1  1510	      =MYCSEG:08CE	     ppppp = $
1  1511				       dstr2 'BYE',0
2  1512	08CE  03		       db    ??000A-$-1+0
2  1513	08CF  42 59 45		       db    'BYE'
2  1514	08D2			     ??000A  label   byte
1  1515	08D2  08C5r		       dw    qqqqq
1  1516	      =MYCSEG:08CE	     qqqqq = ppppp
   1517	08D4  08A9r		     BYE     DW	  XBYE
   1518
   1519				      NF '(BR'
1  1520	      =MYCSEG:08D6	     ppppp = $
1  1521				       dstr2 '(BR',0
2  1522	08D6  03		       db    ??000B-$-1+0
2  1523	08D7  28 42 52		       db    '(BR'
2  1524	08DA			     ??000B  label   byte
1  1525	08DA  08CEr		       dw    qqqqq
1  1526	      =MYCSEG:08D6	     qqqqq = ppppp
   1527	08DC  01F8r		     tbran   DW	  XBRAN	     ; BRANCH
   1528
   1529				      NF '(0BR'
1  1530	      =MYCSEG:08DE	     ppppp = $
1  1531				       dstr2 '(0BR',0
2  1532	08DE  04		       db    ??000C-$-1+0
2  1533	08DF  28 30 42 52	       db    '(0BR'
2  1534	08E3			     ??000C  label   byte
1  1535	08E3  08D6r		       dw    qqqqq
1  1536	      =MYCSEG:08DE	     qqqqq = ppppp
   1537	08E5  01EBr		     tzbran  DW	  XZBRAN     ; 0BRANCH
   1538
   1539				      NF '(OF'
Turbo Assembler	 Version 3.2	    12/14/19 15:48:34	    Page 28
PT.asm



1  1540	      =MYCSEG:08E7	     ppppp = $
1  1541				       dstr2 '(OF',0
2  1542	08E7  03		       db    ??000D-$-1+0
2  1543	08E8  28 4F 46		       db    '(OF'
2  1544	08EB			     ??000D  label   byte
1  1545	08EB  08DEr		       dw    qqqqq
1  1546	      =MYCSEG:08E7	     qqqqq = ppppp
   1547	08ED  0224r		     tof     DW	  XOF	     ; (OF
   1548
   1549				      NF 'EX'
1  1550	      =MYCSEG:08EF	     ppppp = $
1  1551				       dstr2 'EX',0
2  1552	08EF  02		       db    ??000E-$-1+0
2  1553	08F0  45 58		       db    'EX'
2  1554	08F2			     ??000E  label   byte
1  1555	08F2  08E7r		       dw    qqqqq
1  1556	      =MYCSEG:08EF	     qqqqq = ppppp
   1557	08F4  03A9r		     TRpAt   DW	  X_CO	     ; SI<>[RP]
   1558	08F6  1ABEr		     tex_tr  DW	  XEX_TR
   1559	08F8  1ACAr			     DW	  JSR_TR
   1560
   1561				      NF '(FOR'
1  1562	      =MYCSEG:08FA	     ppppp = $
1  1563				       dstr2 '(FOR',0
2  1564	08FA  04		       db    ??000F-$-1+0
2  1565	08FB  28 46 4F 52	       db    '(FOR'
2  1566	08FF			     ??000F  label   byte
1  1567	08FF  08EFr		       dw    qqqqq
1  1568	      =MYCSEG:08FA	     qqqqq = ppppp
   1569	0901  01B1r		     tfor    DW	  XFOR	     ; (FOR
   1570
   1571				      NF '(NEXT'
1  1572	      =MYCSEG:0903	     ppppp = $
1  1573				       dstr2 '(NEXT',0
2  1574	0903  05		       db    ??0010-$-1+0
2  1575	0904  28 4E 45 58 54	       db    '(NEXT'
2  1576	0909			     ??0010  label   byte
1  1577	0909  08FAr		       dw    qqqqq
1  1578	      =MYCSEG:0903	     qqqqq = ppppp
   1579	090B  01D5r		     tnext   DW	  XNEXT	     ; (NEXT
   1580
   1581				      NF '(?DO'
1  1582	      =MYCSEG:090D	     ppppp = $
1  1583				       dstr2 '(?DO',0
2  1584	090D  04		       db    ??0011-$-1+0
2  1585	090E  28 3F 44 4F	       db    '(?DO'
2  1586	0912			     ??0011  label   byte
1  1587	0912  0903r		       dw    qqqqq
1  1588	      =MYCSEG:090D	     qqqqq = ppppp
   1589	0914  01A3r		     T?DO	 DW   XDOP	;  (DO
   1590
   1591				      NF '(DO'
1  1592	      =MYCSEG:0916	     ppppp = $
1  1593				       dstr2 '(DO',0
2  1594	0916  03		       db    ??0012-$-1+0
2  1595	0917  28 44 4F		       db    '(DO'
2  1596	091A			     ??0012  label   byte
Turbo Assembler	 Version 3.2	    12/14/19 15:48:34	    Page 29
PT.asm



1  1597	091A  090Dr		       dw    qqqqq
1  1598	      =MYCSEG:0916	     qqqqq = ppppp
   1599	091C  01F2r		     tdo     DW	  XDO	    ; (?DO
   1600
   1601				      NF 'CNTDO'
1  1602	      =MYCSEG:091E	     ppppp = $
1  1603				       dstr2 'CNTDO',0
2  1604	091E  05		       db    ??0013-$-1+0
2  1605	091F  43 4E 54 44 4F	       db    'CNTDO'
2  1606	0924			     ??0013  label   byte
1  1607	0924  0916r		       dw    qqqqq
1  1608	      =MYCSEG:091E	     qqqqq = ppppp
   1609	0926  03FCr		     tcntDo  DW	  xcntdo     ; CntDo
   1610
   1611				      NF '(LP'
1  1612	      =MYCSEG:0928	     ppppp = $
1  1613				       dstr2 '(LP',0
2  1614	0928  03		       db    ??0014-$-1+0
2  1615	0929  28 4C 50		       db    '(LP'
2  1616	092C			     ??0014  label   byte
1  1617	092C  091Er		       dw    qqqqq
1  1618	      =MYCSEG:0928	     qqqqq = ppppp
   1619	092E  020Dr		     tloop   DW	  XLOOP	     ; (LOOP
   1620
   1621				      NF 'CONT'
1  1622	      =MYCSEG:0930	     ppppp = $
1  1623				       dstr2 'CONT',0
2  1624	0930  04		       db    ??0015-$-1+0
2  1625	0931  43 4F 4E 54	       db    'CONT'
2  1626	0935			     ??0015  label   byte
1  1627	0935  0928r		       dw    qqqqq
1  1628	      =MYCSEG:0930	     qqqqq = ppppp
   1629	0937  01CFr		      DW  XCONT
   1630
   1631				      NF 'TIMES'
1  1632	      =MYCSEG:0939	     ppppp = $
1  1633				       dstr2 'TIMES',0
2  1634	0939  05		       db    ??0016-$-1+0
2  1635	093A  54 49 4D 45 53	       db    'TIMES'
2  1636	093F			     ??0016  label   byte
1  1637	093F  0930r		       dw    qqqqq
1  1638	      =MYCSEG:0939	     qqqqq = ppppp
   1639	0941  01C9r		      DW  XTIMES
   1640
   1641				      NF '(+LP'
1  1642	      =MYCSEG:0943	     ppppp = $
1  1643				       dstr2 '(+LP',0
2  1644	0943  04		       db    ??0017-$-1+0
2  1645	0944  28 2B 4C 50	       db    '(+LP'
2  1646	0948			     ??0017  label   byte
1  1647	0948  0939r		       dw    qqqqq
1  1648	      =MYCSEG:0943	     qqqqq = ppppp
   1649	094A  01FDr		     tploop  DW	  XPLOOP     ; (+LOOP
   1650
   1651				      NF 'LEAVE'
1  1652	      =MYCSEG:094C	     ppppp = $
1  1653				       dstr2 'LEAVE',0
Turbo Assembler	 Version 3.2	    12/14/19 15:48:34	    Page 30
PT.asm



2  1654	094C  05		       db    ??0018-$-1+0
2  1655	094D  4C 45 41 56 45	       db    'LEAVE'
2  1656	0952			     ??0018  label   byte
1  1657	0952  0943r		       dw    qqqqq
1  1658	      =MYCSEG:094C	     qqqqq = ppppp
   1659	0954  0203r		     tleave  DW	  XLEAVE     ; LEAVE
   1660
   1661				      NF '4TH>'
1  1662	      =MYCSEG:0956	     ppppp = $
1  1663				       dstr2 '4TH>',0
2  1664	0956  04		       db    ??0019-$-1+0
2  1665	0957  34 54 48 3E	       db    '4TH>'
2  1666	095B			     ??0019  label   byte
1  1667	095B  094Cr		       dw    qqqqq
1  1668	      =MYCSEG:0956	     qqqqq = ppppp
   1669	095D  019Dr		     tfromf  DW	  XFROMF     ; 4TH>
   1670
   1671				      NF 'BREAK.'
1  1672	      =MYCSEG:095F	     ppppp = $
1  1673				       dstr2 'BREAK.',0
2  1674	095F  06		       db    ??001A-$-1+0
2  1675	0960  42 52 45 41 4B 2E	       db    'BREAK.'
2  1676	0966			     ??001A  label   byte
1  1677	0966  0956r		       dw    qqqqq
1  1678	      =MYCSEG:095F	     qqqqq = ppppp
   1679	0968  019Fr		     tbp     DW	  xbp	     ; brkPnt
   1680
   1681				     ;--------------------^^^^^^^  CONTROL ^^^^^^--------------
   1682
   1683				     ;--------------------VVVVVV MEMORY	 VVVVVVVVVVVV---------------
   1684				     ;	NF '/STR'     ;	STRING OPERATIONS  ( A L N - A+N L-N)
   1685				       NF 'STR-'      ;	A - ADDRESS
1  1686	      =MYCSEG:096A	     ppppp = $
1  1687				       dstr2 'STR-',0
2  1688	096A  04		       db    ??001B-$-1+0
2  1689	096B  53 54 52 2D	       db    'STR-'
2  1690	096F			     ??001B  label   byte
1  1691	096F  095Fr		       dw    qqqqq
1  1692	      =MYCSEG:096A	     qqqqq = ppppp
   1693	0971  025Fr		       DW XSTR	      ;	L - LENGTH
   1694						      ;	N - SIZE TO CHANGE WITH
   1695				       NF 'STR+'      ;	( A L N	- A-N L+N)
1  1696	      =MYCSEG:0973	     ppppp = $
1  1697				       dstr2 'STR+',0
2  1698	0973  04		       db    ??001C-$-1+0
2  1699	0974  53 54 52 2B	       db    'STR+'
2  1700	0978			     ??001C  label   byte
1  1701	0978  096Ar		       dw    qqqqq
1  1702	      =MYCSEG:0973	     qqqqq = ppppp
   1703	097A  025Dr		       DW XSTRP	       ;,X2STR,X1STR
   1704
   1705				      NF 'CSTR'			   ; ( A - A+1 C )
1  1706	      =MYCSEG:097C	     ppppp = $
1  1707				       dstr2 'CSTR',0
2  1708	097C  04		       db    ??001D-$-1+0
2  1709	097D  43 53 54 52	       db    'CSTR'
2  1710	0981			     ??001D  label   byte
Turbo Assembler	 Version 3.2	    12/14/19 15:48:34	    Page 31
PT.asm



1  1711	0981  0973r		       dw    qqqqq
1  1712	      =MYCSEG:097C	     qqqqq = ppppp
   1713	0983  030Dr		     tCouNT  DW	 XCOUNT		      ;	C - CHAR  0..255
   1714
   1715				      NF  'BSTR'      ;	( A - A+1 B )
1  1716	      =MYCSEG:0985	     ppppp = $
1  1717				       dstr2 'BSTR',0
2  1718	0985  04		       db    ??001E-$-1+0
2  1719	0986  42 53 54 52	       db    'BSTR'
2  1720	098A			     ??001E  label   byte
1  1721	098A  097Cr		       dw    qqqqq
1  1722	      =MYCSEG:0985	     qqqqq = ppppp
   1723	098C  034Er		     TSCOUNT DW	  XSCAT	 ; B - BYTE  -128..127
   1724
   1725				       NF 'STR'	     ; GETSTR
1  1726	      =MYCSEG:098E	     ppppp = $
1  1727				       dstr2 'STR',0
2  1728	098E  03		       db    ??001F-$-1+0
2  1729	098F  53 54 52		       db    'STR'
2  1730	0992			     ??001F  label   byte
1  1731	0992  0985r		       dw    qqqqq
1  1732	      =MYCSEG:098E	     qqqqq = ppppp
   1733	0994			     TWCOUNT:
   1734	0994  06DBr		     TSTR  DW  XWCOUNT
   1735
   1736				       NF 'STR!'     ; SETSTR
1  1737	      =MYCSEG:0996	     ppppp = $
1  1738				       dstr2 'STR!',0
2  1739	0996  04		       db    ??0020-$-1+0
2  1740	0997  53 54 52 21	       db    'STR!'
2  1741	099B			     ??0020  label   byte
1  1742	099B  098Er		       dw    qqqqq
1  1743	      =MYCSEG:0996	     qqqqq = ppppp
   1744	099D  041Er		      DW XSTRSTO
   1745
   1746				       NF 'STR+!'    ; PLUSSTR
1  1747	      =MYCSEG:099F	     ppppp = $
1  1748				       dstr2 'STR+!',0
2  1749	099F  05		       db    ??0021-$-1+0
2  1750	09A0  53 54 52 2B 21	       db    'STR+!'
2  1751	09A5			     ??0021  label   byte
1  1752	09A5  0996r		       dw    qqqqq
1  1753	      =MYCSEG:099F	     qqqqq = ppppp
   1754	09A7  0414r		      DW XSTRPLS
   1755
   1756				       NF 'ON'
1  1757	      =MYCSEG:09A9	     ppppp = $
1  1758				       dstr2 'ON',0
2  1759	09A9  02		       db    ??0022-$-1+0
2  1760	09AA  4F 4E		       db    'ON'
2  1761	09AC			     ??0022  label   byte
1  1762	09AC  099Fr		       dw    qqqqq
1  1763	      =MYCSEG:09A9	     qqqqq = ppppp
   1764	09AE  02A6r			 DW   XM1STOR	 ; -1!
   1765
   1766				       NF 'OFF'
1  1767	      =MYCSEG:09B0	     ppppp = $
Turbo Assembler	 Version 3.2	    12/14/19 15:48:34	    Page 32
PT.asm



1  1768				       dstr2 'OFF',0
2  1769	09B0  03		       db    ??0023-$-1+0
2  1770	09B1  4F 46 46		       db    'OFF'
2  1771	09B4			     ??0023  label   byte
1  1772	09B4  09A9r		       dw    qqqqq
1  1773	      =MYCSEG:09B0	     qqqqq = ppppp
   1774	09B6  02AAr		     tZstor DW	XZSTOR	 ; 0!
   1775
   1776				      NF '@SWAP'
1  1777	      =MYCSEG:09B8	     ppppp = $
1  1778				       dstr2 '@SWAP',0
2  1779	09B8  05		       db    ??0024-$-1+0
2  1780	09B9  40 53 57 41 50	       db    '@SWAP'
2  1781	09BE			     ??0024  label   byte
1  1782	09BE  09B0r		       dw    qqqqq
1  1783	      =MYCSEG:09B8	     qqqqq = ppppp
   1784	09C0  04CDr		     T@SWP2  DW	  XATSWP2    ; OVER @ -ROT SWAP!
   1785				      NF '!'
1  1786	      =MYCSEG:09C2	     ppppp = $
1  1787				       dstr2 '!',0
2  1788	09C2  01		       db    ??0025-$-1+0
2  1789	09C3  21		       db    '!'
2  1790	09C4			     ??0025  label   byte
1  1791	09C4  09B8r		       dw    qqqqq
1  1792	      =MYCSEG:09C2	     qqqqq = ppppp
   1793	09C6  0298r		     tstore1 DW	  XSTORE1    ; !
   1794				      NF '2!'
1  1795	      =MYCSEG:09C8	     ppppp = $
1  1796				       dstr2 '2!',0
2  1797	09C8  02		       db    ??0026-$-1+0
2  1798	09C9  32 21		       db    '2!'
2  1799	09CB			     ??0026  label   byte
1  1800	09CB  09C2r		       dw    qqqqq
1  1801	      =MYCSEG:09C8	     qqqqq = ppppp
   1802	09CD  0294r		     TSTORE2 DW	  XSTORE2    ; 2!
   1803				      NF '@'
1  1804	      =MYCSEG:09CF	     ppppp = $
1  1805				       dstr2 '@',0
2  1806	09CF  01		       db    ??0027-$-1+0
2  1807	09D0  40		       db    '@'
2  1808	09D1			     ??0027  label   byte
1  1809	09D1  09C8r		       dw    qqqqq
1  1810	      =MYCSEG:09CF	     qqqqq = ppppp
   1811	09D3  0302r		     tfetch  DW	  xfetch     ; @
   1812				      NF '2@'
1  1813	      =MYCSEG:09D5	     ppppp = $
1  1814				       dstr2 '2@',0
2  1815	09D5  02		       db    ??0028-$-1+0
2  1816	09D6  32 40		       db    '2@'
2  1817	09D8			     ??0028  label   byte
1  1818	09D8  09CFr		       dw    qqqqq
1  1819	      =MYCSEG:09D5	     qqqqq = ppppp
   1820	09DA  02FFr		     TTWOAT  DW	  XTWOAT     ; 2@
   1821				     ; NF 'FA@'
   1822				     ;	      DW   XTWOATA    ;	FA
   1823				     ; NF 'FA!'
   1824				     ;	      DW   XSTOREA    ;	TO FA
Turbo Assembler	 Version 3.2	    12/14/19 15:48:34	    Page 33
PT.asm



   1825				      NF 'C!'
1  1826	      =MYCSEG:09DC	     ppppp = $
1  1827				       dstr2 'C!',0
2  1828	09DC  02		       db    ??0029-$-1+0
2  1829	09DD  43 21		       db    'C!'
2  1830	09DF			     ??0029  label   byte
1  1831	09DF  09D5r		       dw    qqqqq
1  1832	      =MYCSEG:09DC	     qqqqq = ppppp
   1833	09E1  02B0r		     tcstore DW	  XCSTOR     ; C!
   1834
   1835				      NF 'C@'
1  1836	      =MYCSEG:09E3	     ppppp = $
1  1837				       dstr2 'C@',0
2  1838	09E3  02		       db    ??002A-$-1+0
2  1839	09E4  43 40		       db    'C@'
2  1840	09E6			     ??002A  label   byte
1  1841	09E6  09DCr		       dw    qqqqq
1  1842	      =MYCSEG:09E3	     qqqqq = ppppp
   1843	09E8  0310r		     tcat    DW	  XCAT	     ; C@
   1844
   1845				      NF '1-!'
1  1846	      =MYCSEG:09EA	     ppppp = $
1  1847				       dstr2 '1-!',0
2  1848	09EA  03		       db    ??002B-$-1+0
2  1849	09EB  31 2D 21		       db    '1-!'
2  1850	09EE			     ??002B  label   byte
1  1851	09EE  09E3r		       dw    qqqqq
1  1852	      =MYCSEG:09EA	     qqqqq = ppppp
   1853	09F0  02E6r			     dw	  xm1sto     ; DUP @ 1-	SWAP !
   1854				      NF '1-!@'
1  1855	      =MYCSEG:09F2	     ppppp = $
1  1856				       dstr2 '1-!@',0
2  1857	09F2  04		       db    ??002C-$-1+0
2  1858	09F3  31 2D 21 40	       db    '1-!@'
2  1859	09F7			     ??002C  label   byte
1  1860	09F7  09EAr		       dw    qqqqq
1  1861	      =MYCSEG:09F2	     qqqqq = ppppp
   1862	09F9  04B5r 0001	     tM1at   DW	  XMINS@,1   ; 1-!@
   1863				      NF '2-!'
1  1864	      =MYCSEG:09FD	     ppppp = $
1  1865				       dstr2 '2-!',0
2  1866	09FD  03		       db    ??002D-$-1+0
2  1867	09FE  32 2D 21		       db    '2-!'
2  1868	0A01			     ??002D  label   byte
1  1869	0A01  09F2r		       dw    qqqqq
1  1870	      =MYCSEG:09FD	     qqqqq = ppppp
   1871	0A03  02E4r			     dw	  xm2sto     ; 2-!
   1872				      NF '2-!@'
1  1873	      =MYCSEG:0A05	     ppppp = $
1  1874				       dstr2 '2-!@',0
2  1875	0A05  04		       db    ??002E-$-1+0
2  1876	0A06  32 2D 21 40	       db    '2-!@'
2  1877	0A0A			     ??002E  label   byte
1  1878	0A0A  09FDr		       dw    qqqqq
1  1879	      =MYCSEG:0A05	     qqqqq = ppppp
   1880	0A0C  04B5r 0002	     tM2at   DW	  XMINS@,2  ; 2-!@
   1881				      NF '1+!'
Turbo Assembler	 Version 3.2	    12/14/19 15:48:34	    Page 34
PT.asm



1  1882	      =MYCSEG:0A10	     ppppp = $
1  1883				       dstr2 '1+!',0
2  1884	0A10  03		       db    ??002F-$-1+0
2  1885	0A11  31 2B 21		       db    '1+!'
2  1886	0A14			     ??002F  label   byte
1  1887	0A14  0A05r		       dw    qqqqq
1  1888	      =MYCSEG:0A10	     qqqqq = ppppp
   1889	0A16  02ECr			     dw	  xp1sto     ; 1+!
   1890				      NF '@1+!'
1  1891	      =MYCSEG:0A18	     ppppp = $
1  1892				       dstr2 '@1+!',0
2  1893	0A18  04		       db    ??0030-$-1+0
2  1894	0A19  40 31 2B 21	       db    '@1+!'
2  1895	0A1D			     ??0030  label   byte
1  1896	0A1D  0A10r		       dw    qqqqq
1  1897	      =MYCSEG:0A18	     qqqqq = ppppp
   1898	0A1F  04C3r 0001	     tAtP1   DW	  X@PLUS,1   ; @1+!
   1899				      NF '2+!'
1  1900	      =MYCSEG:0A23	     ppppp = $
1  1901				       dstr2 '2+!',0
2  1902	0A23  03		       db    ??0031-$-1+0
2  1903	0A24  32 2B 21		       db    '2+!'
2  1904	0A27			     ??0031  label   byte
1  1905	0A27  0A18r		       dw    qqqqq
1  1906	      =MYCSEG:0A23	     qqqqq = ppppp
   1907	0A29  02EAr			     dw	  xp2sto     ; 2+!
   1908				      NF '@2+!'
1  1909	      =MYCSEG:0A2B	     ppppp = $
1  1910				       dstr2 '@2+!',0
2  1911	0A2B  04		       db    ??0032-$-1+0
2  1912	0A2C  40 32 2B 21	       db    '@2+!'
2  1913	0A30			     ??0032  label   byte
1  1914	0A30  0A23r		       dw    qqqqq
1  1915	      =MYCSEG:0A2B	     qqqqq = ppppp
   1916	0A32  04C3r 0002	     tAtP2   DW	  X@PLUS,2   ; @2+!
   1917				      NF '@+!'
1  1918	      =MYCSEG:0A36	     ppppp = $
1  1919				       dstr2 '@+!',0
2  1920	0A36  03		       db    ??0033-$-1+0
2  1921	0A37  40 2B 21		       db    '@+!'
2  1922	0A3A			     ??0033  label   byte
1  1923	0A3A  0A2Br		       dw    qqqqq
1  1924	      =MYCSEG:0A36	     qqqqq = ppppp
   1925	0A3C  04D1r			     DW	X@PLSTO
   1926				      NF '@-!'
1  1927	      =MYCSEG:0A3E	     ppppp = $
1  1928				       dstr2 '@-!',0
2  1929	0A3E  03		       db    ??0034-$-1+0
2  1930	0A3F  40 2D 21		       db    '@-!'
2  1931	0A42			     ??0034  label   byte
1  1932	0A42  0A36r		       dw    qqqqq
1  1933	      =MYCSEG:0A3E	     qqqqq = ppppp
   1934	0A44  04B9r			     DW	XALLOTM
   1935				      nf 'XOR!'
1  1936	      =MYCSEG:0A46	     ppppp = $
1  1937				       dstr2 'XOR!',0
2  1938	0A46  04		       db    ??0035-$-1+0
Turbo Assembler	 Version 3.2	    12/14/19 15:48:34	    Page 35
PT.asm



2  1939	0A47  58 4F 52 21	       db    'XOR!'
2  1940	0A4B			     ??0035  label   byte
1  1941	0A4B  0A3Er		       dw    qqqqq
1  1942	      =MYCSEG:0A46	     qqqqq = ppppp
   1943	0A4D  02A1r		     txorTo  DW	  xxorto     ; XOR!
   1944				      NF 'AND!'
1  1945	      =MYCSEG:0A4F	     ppppp = $
1  1946				       dstr2 'AND!',0
2  1947	0A4F  04		       db    ??0036-$-1+0
2  1948	0A50  41 4E 44 21	       db    'AND!'
2  1949	0A54			     ??0036  label   byte
1  1950	0A54  0A46r		       dw    qqqqq
1  1951	      =MYCSEG:0A4F	     qqqqq = ppppp
   1952	0A56  0897r		     TOand   DW	  XTOAND       ; AND!
   1953				      NF 'OR!'
1  1954	      =MYCSEG:0A58	     ppppp = $
1  1955				       dstr2 'OR!',0
2  1956	0A58  03		       db    ??0037-$-1+0
2  1957	0A59  4F 52 21		       db    'OR!'
2  1958	0A5C			     ??0037  label   byte
1  1959	0A5C  0A4Fr		       dw    qqqqq
1  1960	      =MYCSEG:0A58	     qqqqq = ppppp
   1961	0A5E  089Dr			     DW	  XTOORE       ; OR!
   1962				      NF '+!'
1  1963	      =MYCSEG:0A60	     ppppp = $
1  1964				       dstr2 '+!',0
2  1965	0A60  02		       db    ??0038-$-1+0
2  1966	0A61  2B 21		       db    '+!'
2  1967	0A63			     ??0038  label   byte
1  1968	0A63  0A58r		       dw    qqqqq
1  1969	      =MYCSEG:0A60	     qqqqq = ppppp
   1970	0A65  08A3r		     tpstore DW	  XPSTORE    ; +!
   1971
   1972				      NF 'CMOVE'
1  1973	      =MYCSEG:0A67	     ppppp = $
1  1974				       dstr2 'CMOVE',0
2  1975	0A67  05		       db    ??0039-$-1+0
2  1976	0A68  43 4D 4F 56 45	       db    'CMOVE'
2  1977	0A6D			     ??0039  label   byte
1  1978	0A6D  0A60r		       dw    qqqqq
1  1979	      =MYCSEG:0A67	     qqqqq = ppppp
   1980	0A6F  0424r			     DW	  XCMOVE     ; <CMOVE
   1981				      NF 'CMOVE>'
1  1982	      =MYCSEG:0A71	     ppppp = $
1  1983				       dstr2 'CMOVE>',0
2  1984	0A71  06		       db    ??003A-$-1+0
2  1985	0A72  43 4D 4F 56 45 3E	       db    'CMOVE>'
2  1986	0A78			     ??003A  label   byte
1  1987	0A78  0A67r		       dw    qqqqq
1  1988	      =MYCSEG:0A71	     qqqqq = ppppp
   1989	0A7A  0436r			     DW	  XCMOVUP    ; CMOVE>
   1990				      NF 'MOVE'
1  1991	      =MYCSEG:0A7C	     ppppp = $
1  1992				       dstr2 'MOVE',0
2  1993	0A7C  04		       db    ??003B-$-1+0
2  1994	0A7D  4D 4F 56 45	       db    'MOVE'
2  1995	0A81			     ??003B  label   byte
Turbo Assembler	 Version 3.2	    12/14/19 15:48:34	    Page 36
PT.asm



1  1996	0A81  0A71r		       dw    qqqqq
1  1997	      =MYCSEG:0A7C	     qqqqq = ppppp
   1998	0A83  042Dr			     DW	  XMOVE	     ; CMOVE
   1999				      NF 'FILL'
1  2000	      =MYCSEG:0A85	     ppppp = $
1  2001				       dstr2 'FILL',0
2  2002	0A85  04		       db    ??003C-$-1+0
2  2003	0A86  46 49 4C 4C	       db    'FILL'
2  2004	0A8A			     ??003C  label   byte
1  2005	0A8A  0A7Cr		       dw    qqqqq
1  2006	      =MYCSEG:0A85	     qqqqq = ppppp
   2007	0A8C  0446r		     tFILL   DW	  XFILL	     ; MOVE
   2008
   2009				       NF '-TEXT'
1  2010	      =MYCSEG:0A8E	     ppppp = $
1  2011				       dstr2 '-TEXT',0
2  2012	0A8E  05		       db    ??003D-$-1+0
2  2013	0A8F  2D 54 45 58 54	       db    '-TEXT'
2  2014	0A94			     ??003D  label   byte
1  2015	0A94  0A85r		       dw    qqqqq
1  2016	      =MYCSEG:0A8E	     qqqqq = ppppp
   2017	0A96  0487r		       DW XMTEXT
   2018
   2019				       NF 'SCLST'
1  2020	      =MYCSEG:0A98	     ppppp = $
1  2021				       dstr2 'SCLST',0
2  2022	0A98  05		       db    ??003E-$-1+0
2  2023	0A99  53 43 4C 53 54	       db    'SCLST'
2  2024	0A9E			     ??003E  label   byte
1  2025	0A9E  0A8Er		       dw    qqqqq
1  2026	      =MYCSEG:0A98	     qqqqq = ppppp
   2027	0AA0  0471r		       DW XSCANL
   2028
   2029				       NF 'INDSCAN'
1  2030	      =MYCSEG:0AA2	     ppppp = $
1  2031				       dstr2 'INDSCAN',0
2  2032	0AA2  07		       db    ??003F-$-1+0
2  2033	0AA3  49 4E 44 53 43 41	4E     db    'INDSCAN'
2  2034	0AAA			     ??003F  label   byte
1  2035	0AAA  0A98r		       dw    qqqqq
1  2036	      =MYCSEG:0AA2	     qqqqq = ppppp
   2037	0AAC  04A2r		       DW XSCANI
   2038
   2039				       NF 'SCANB'
1  2040	      =MYCSEG:0AAE	     ppppp = $
1  2041				       dstr2 'SCANB',0
2  2042	0AAE  05		       db    ??0040-$-1+0
2  2043	0AAF  53 43 41 4E 42	       db    'SCANB'
2  2044	0AB4			     ??0040  label   byte
1  2045	0AB4  0AA2r		       dw    qqqqq
1  2046	      =MYCSEG:0AAE	     qqqqq = ppppp
   2047	0AB6  046Br		       DW XSCANB
   2048
   2049				       NF 'SCAN'
1  2050	      =MYCSEG:0AB8	     ppppp = $
1  2051				       dstr2 'SCAN',0
2  2052	0AB8  04		       db    ??0041-$-1+0
Turbo Assembler	 Version 3.2	    12/14/19 15:48:34	    Page 37
PT.asm



2  2053	0AB9  53 43 41 4E	       db    'SCAN'
2  2054	0ABD			     ??0041  label   byte
1  2055	0ABD  0AAEr		       dw    qqqqq
1  2056	      =MYCSEG:0AB8	     qqqqq = ppppp
   2057	0ABF  0465r		       DW XSCANW
   2058
   2059				      NF 'ERASE'
1  2060	      =MYCSEG:0AC1	     ppppp = $
1  2061				       dstr2 'ERASE',0
2  2062	0AC1  05		       db    ??0042-$-1+0
2  2063	0AC2  45 52 41 53 45	       db    'ERASE'
2  2064	0AC7			     ??0042  label   byte
1  2065	0AC7  0AB8r		       dw    qqqqq
1  2066	      =MYCSEG:0AC1	     qqqqq = ppppp
   2067	0AC9  0442r		      DW _FILLER
   2068	0ACB  00		      DB 0
   2069
   2070				      NF 'BLANK'
1  2071	      =MYCSEG:0ACC	     ppppp = $
1  2072				       dstr2 'BLANK',0
2  2073	0ACC  05		       db    ??0043-$-1+0
2  2074	0ACD  42 4C 41 4E 4B	       db    'BLANK'
2  2075	0AD2			     ??0043  label   byte
1  2076	0AD2  0AC1r		       dw    qqqqq
1  2077	      =MYCSEG:0ACC	     qqqqq = ppppp
   2078	0AD4  0442r		       DW _FILLER
   2079	0AD6  20		       DB ' '
   2080
   2081				      NF 'REVERCE'
1  2082	      =MYCSEG:0AD7	     ppppp = $
1  2083				       dstr2 'REVERCE',0
2  2084	0AD7  07		       db    ??0044-$-1+0
2  2085	0AD8  52 45 56 45 52 43	45     db    'REVERCE'
2  2086	0ADF			     ??0044  label   byte
1  2087	0ADF  0ACCr		       dw    qqqqq
1  2088	      =MYCSEG:0AD7	     qqqqq = ppppp
   2089	0AE1  0870r		       DW   XC@SWAP
   2090
   2091				      NF 'SWAP!'
1  2092	      =MYCSEG:0AE3	     ppppp = $
1  2093				       dstr2 'SWAP!',0
2  2094	0AE3  05		       db    ??0045-$-1+0
2  2095	0AE4  53 57 41 50 21	       db    'SWAP!'
2  2096	0AE9			     ??0045  label   byte
1  2097	0AE9  0AD7r		       dw    qqqqq
1  2098	      =MYCSEG:0AE3	     qqqqq = ppppp
   2099	0AEB  06D1r		     tswapsto DW XSWPSTO
   2100
   2101				       NF 'C@+'	      ;	STREEM @ OPERATIONS
1  2102	      =MYCSEG:0AED	     ppppp = $
1  2103				       dstr2 'C@+',0
2  2104	0AED  03		       db    ??0046-$-1+0
2  2105	0AEE  43 40 2B		       db    'C@+'
2  2106	0AF1			     ??0046  label   byte
1  2107	0AF1  0AE3r		       dw    qqqqq
1  2108	      =MYCSEG:0AED	     qqqqq = ppppp
   2109	0AF3  088Cr		     TADRP1  DW	CFCH_P1
Turbo Assembler	 Version 3.2	    12/14/19 15:48:34	    Page 38
PT.asm



   2110
   2111				       NF '@+'	     ; STREEM @	OPERATIONS
1  2112	      =MYCSEG:0AF5	     ppppp = $
1  2113				       dstr2 '@+',0
2  2114	0AF5  02		       db    ??0047-$-1+0
2  2115	0AF6  40 2B		       db    '@+'
2  2116	0AF8			     ??0047  label   byte
1  2117	0AF8  0AEDr		       dw    qqqqq
1  2118	      =MYCSEG:0AF5	     qqqqq = ppppp
   2119	0AFA  0893r		     TADRP2  DW	FCH_P2
   2120
   2121				       NF 'C!+'	      ;	STREEM ! OPERATIONS
1  2122	      =MYCSEG:0AFC	     ppppp = $
1  2123				       dstr2 'C!+',0
2  2124	0AFC  03		       db    ??0048-$-1+0
2  2125	0AFD  43 21 2B		       db    'C!+'
2  2126	0B00			     ??0048  label   byte
1  2127	0B00  0AF5r		       dw    qqqqq
1  2128	      =MYCSEG:0AFC	     qqqqq = ppppp
   2129	0B02  0887r		     TADRSP1  DW XADRSP1
   2130
   2131				       NF '!+'	     ; STREEM !	OPERATIONS
1  2132	      =MYCSEG:0B04	     ppppp = $
1  2133				       dstr2 '!+',0
2  2134	0B04  02		       db    ??0049-$-1+0
2  2135	0B05  21 2B		       db    '!+'
2  2136	0B07			     ??0049  label   byte
1  2137	0B07  0AFCr		       dw    qqqqq
1  2138	      =MYCSEG:0B04	     qqqqq = ppppp
   2139	0B09  0880r		     TADRSP2  DW XADRSP2
   2140
   2141				     ;----------------^^^^^^^^^	MEMORY	^^^^^^^^^^-------------------
   2142
   2143				     ;---------------vvvvvvvv  MATH   vvvvvvvv-------------------
   2144				      NF 'NEGATE'
1  2145	      =MYCSEG:0B0B	     ppppp = $
1  2146				       dstr2 'NEGATE',0
2  2147	0B0B  06		       db    ??004A-$-1+0
2  2148	0B0C  4E 45 47 41 54 45	       db    'NEGATE'
2  2149	0B12			     ??004A  label   byte
1  2150	0B12  0B04r		       dw    qqqqq
1  2151	      =MYCSEG:0B0B	     qqqqq = ppppp
   2152	0B14  0237r		     TNEGATE DW	  XNEGATE    ; NEGATE
   2153
   2154				      NF 'DNEGATE'
1  2155	      =MYCSEG:0B16	     ppppp = $
1  2156				       dstr2 'DNEGATE',0
2  2157	0B16  07		       db    ??004B-$-1+0
2  2158	0B17  44 4E 45 47 41 54	45     db    'DNEGATE'
2  2159	0B1E			     ??004B  label   byte
1  2160	0B1E  0B0Br		       dw    qqqqq
1  2161	      =MYCSEG:0B16	     qqqqq = ppppp
   2162	0B20  03ECr		     tdnegat DW	  XDNEGAT    ; DNEGATE
   2163
   2164				       NF 'SHIFT'
1  2165	      =MYCSEG:0B22	     ppppp = $
1  2166				       dstr2 'SHIFT',0
Turbo Assembler	 Version 3.2	    12/14/19 15:48:34	    Page 39
PT.asm



2  2167	0B22  05		       db    ??004C-$-1+0
2  2168	0B23  53 48 49 46 54	       db    'SHIFT'
2  2169	0B28			     ??004C  label   byte
1  2170	0B28  0B16r		       dw    qqqqq
1  2171	      =MYCSEG:0B22	     qqqqq = ppppp
   2172	0B2A  0359r		       DW XSHIFT
   2173
   2174				       NF '2^'
1  2175	      =MYCSEG:0B2C	     ppppp = $
1  2176				       dstr2 '2^',0
2  2177	0B2C  02		       db    ??004D-$-1+0
2  2178	0B2D  32 5E		       db    '2^'
2  2179	0B2F			     ??004D  label   byte
1  2180	0B2F  0B22r		       dw    qqqqq
1  2181	      =MYCSEG:0B2C	     qqqqq = ppppp
   2182	0B31  0355r		       DW X2PWR
   2183
   2184				       NF '/MOD'
1  2185	      =MYCSEG:0B33	     ppppp = $
1  2186				       dstr2 '/MOD',0
2  2187	0B33  04		       db    ??004E-$-1+0
2  2188	0B34  2F 4D 4F 44	       db    '/MOD'
2  2189	0B38			     ??004E  label   byte
1  2190	0B38  0B2Cr		       dw    qqqqq
1  2191	      =MYCSEG:0B33	     qqqqq = ppppp
   2192	0B3A  06EBr		       DW XDIVMOD
   2193
   2194				       NF 'MOD'
1  2195	      =MYCSEG:0B3C	     ppppp = $
1  2196				       dstr2 'MOD',0
2  2197	0B3C  03		       db    ??004F-$-1+0
2  2198	0B3D  4D 4F 44		       db    'MOD'
2  2199	0B40			     ??004F  label   byte
1  2200	0B40  0B33r		       dw    qqqqq
1  2201	      =MYCSEG:0B3C	     qqqqq = ppppp
   2202	0B42  06FAr		       DW XMOD
   2203
   2204				       NF '/'
1  2205	      =MYCSEG:0B44	     ppppp = $
1  2206				       dstr2 '/',0
2  2207	0B44  01		       db    ??0050-$-1+0
2  2208	0B45  2F		       db    '/'
2  2209	0B46			     ??0050  label   byte
1  2210	0B46  0B3Cr		       dw    qqqqq
1  2211	      =MYCSEG:0B44	     qqqqq = ppppp
   2212	0B48  06F3r		       DW XDIV
   2213
   2214				      NF 'M*'
1  2215	      =MYCSEG:0B4A	     ppppp = $
1  2216				       dstr2 'M*',0
2  2217	0B4A  02		       db    ??0051-$-1+0
2  2218	0B4B  4D 2A		       db    'M*'
2  2219	0B4D			     ??0051  label   byte
1  2220	0B4D  0B44r		       dw    qqqqq
1  2221	      =MYCSEG:0B4A	     qqqqq = ppppp
   2222	0B4F  06E2r		     TMUL DW XMULT2
   2223
Turbo Assembler	 Version 3.2	    12/14/19 15:48:34	    Page 40
PT.asm



   2224				      NF '*'
1  2225	      =MYCSEG:0B51	     ppppp = $
1  2226				       dstr2 '*',0
2  2227	0B51  01		       db    ??0052-$-1+0
2  2228	0B52  2A		       db    '*'
2  2229	0B53			     ??0052  label   byte
1  2230	0B53  0B4Ar		       dw    qqqqq
1  2231	      =MYCSEG:0B51	     qqqqq = ppppp
   2232	0B55  0218r 0B4Fr 1982r	  +   DW JSR,TMUL,TDROP,TEXIT
   2233	      08C3r
   2234
   2235				       NF 'ABS'
1  2236	      =MYCSEG:0B5D	     ppppp = $
1  2237				       dstr2 'ABS',0
2  2238	0B5D  03		       db    ??0053-$-1+0
2  2239	0B5E  41 42 53		       db    'ABS'
2  2240	0B61			     ??0053  label   byte
1  2241	0B61  0B51r		       dw    qqqqq
1  2242	      =MYCSEG:0B5D	     qqqqq = ppppp
   2243	0B63  0233r		       DW XABS
   2244
   2245				       NF 'DABS'
1  2246	      =MYCSEG:0B65	     ppppp = $
1  2247				       dstr2 'DABS',0
2  2248	0B65  04		       db    ??0054-$-1+0
2  2249	0B66  44 41 42 53	       db    'DABS'
2  2250	0B6A			     ??0054  label   byte
1  2251	0B6A  0B5Dr		       dw    qqqqq
1  2252	      =MYCSEG:0B65	     qqqqq = ppppp
   2253	0B6C  03E8r		       DW XDABS
   2254
   2255				       NF '(CLSC'
1  2256	      =MYCSEG:0B6E	     ppppp = $
1  2257				       dstr2 '(CLSC',0
2  2258	0B6E  05		       db    ??0055-$-1+0
2  2259	0B6F  28 43 4C 53 43	       db    '(CLSC'
2  2260	0B74			     ??0055  label   byte
1  2261	0B74  0B65r		       dw    qqqqq
1  2262	      =MYCSEG:0B6E	     qqqqq = ppppp
   2263	0B76  0854r		       DW XCLRSCR
   2264
   2265				      NF 'ALPHA'
1  2266	      =MYCSEG:0B78	     ppppp = $
1  2267				       dstr2 'ALPHA',0
2  2268	0B78  05		       db    ??0056-$-1+0
2  2269	0B79  41 4C 50 48 41	       db    'ALPHA'
2  2270	0B7E			     ??0056  label   byte
1  2271	0B7E  0B6Er		       dw    qqqqq
1  2272	      =MYCSEG:0B78	     qqqqq = ppppp
   2273	0B80  04EFr		      DW XALPHA
   2274
   2275				      NF '2/'
1  2276	      =MYCSEG:0B82	     ppppp = $
1  2277				       dstr2 '2/',0
2  2278	0B82  02		       db    ??0057-$-1+0
2  2279	0B83  32 2F		       db    '2/'
2  2280	0B85			     ??0057  label   byte
Turbo Assembler	 Version 3.2	    12/14/19 15:48:34	    Page 41
PT.asm



1  2281	0B85  0B78r		       dw    qqqqq
1  2282	      =MYCSEG:0B82	     qqqqq = ppppp
   2283	0B87  0367r			DW   X2SLS	; 2/
   2284
   2285				      NF '2*'
1  2286	      =MYCSEG:0B89	     ppppp = $
1  2287				       dstr2 '2*',0
2  2288	0B89  02		       db    ??0058-$-1+0
2  2289	0B8A  32 2A		       db    '2*'
2  2290	0B8C			     ??0058  label   byte
1  2291	0B8C  0B82r		       dw    qqqqq
1  2292	      =MYCSEG:0B89	     qqqqq = ppppp
   2293	0B8E  036Cr		     T2STAR  DW	  X2STAR     ; 2*
   2294
   2295				      NF 'UM/MOD'
1  2296	      =MYCSEG:0B90	     ppppp = $
1  2297				       dstr2 'UM/MOD',0
2  2298	0B90  06		       db    ??0059-$-1+0
2  2299	0B91  55 4D 2F 4D 4F 44	       db    'UM/MOD'
2  2300	0B97			     ??0059  label   byte
1  2301	0B97  0B89r		       dw    qqqqq
1  2302	      =MYCSEG:0B90	     qqqqq = ppppp
   2303	0B99  03CDr			     DW	  XUMSLSM    ; UM/MOD
   2304
   2305				      NF 'UM*'
1  2306	      =MYCSEG:0B9B	     ppppp = $
1  2307				       dstr2 'UM*',0
2  2308	0B9B  03		       db    ??005A-$-1+0
2  2309	0B9C  55 4D 2A		       db    'UM*'
2  2310	0B9F			     ??005A  label   byte
1  2311	0B9F  0B90r		       dw    qqqqq
1  2312	      =MYCSEG:0B9B	     qqqqq = ppppp
   2313	0BA1  0373r			     DW	  XUMSTAR    ; UM*
   2314
   2315				      NF 'AND'
1  2316	      =MYCSEG:0BA3	     ppppp = $
1  2317				       dstr2 'AND',0
2  2318	0BA3  03		       db    ??005B-$-1+0
2  2319	0BA4  41 4E 44		       db    'AND'
2  2320	0BA7			     ??005B  label   byte
1  2321	0BA7  0B9Br		       dw    qqqqq
1  2322	      =MYCSEG:0BA3	     qqqqq = ppppp
   2323	0BA9  023Er		     tand    DW	  XAND	     ; AND
   2324
   2325				      nf 'XOR'
1  2326	      =MYCSEG:0BAB	     ppppp = $
1  2327				       dstr2 'XOR',0
2  2328	0BAB  03		       db    ??005C-$-1+0
2  2329	0BAC  58 4F 52		       db    'XOR'
2  2330	0BAF			     ??005C  label   byte
1  2331	0BAF  0BA3r		       dw    qqqqq
1  2332	      =MYCSEG:0BAB	     qqqqq = ppppp
   2333	0BB1  0248r		     txor    DW	  XXORX	     ; XOR
   2334
   2335				      NF 'COM'
1  2336	      =MYCSEG:0BB3	     ppppp = $
1  2337				       dstr2 'COM',0
Turbo Assembler	 Version 3.2	    12/14/19 15:48:34	    Page 42
PT.asm



2  2338	0BB3  03		       db    ??005D-$-1+0
2  2339	0BB4  43 4F 4D		       db    'COM'
2  2340	0BB7			     ??005D  label   byte
1  2341	0BB7  0BABr		       dw    qqqqq
1  2342	      =MYCSEG:0BB3	     qqqqq = ppppp
   2343	0BB9  023Ar		     tNOT    DW	  xNOT	     ; NOT
   2344
   2345				      NF 'PACK'
1  2346	      =MYCSEG:0BBB	     ppppp = $
1  2347				       dstr2 'PACK',0
2  2348	0BBB  04		       db    ??005E-$-1+0
2  2349	0BBC  50 41 43 4B	       db    'PACK'
2  2350	0BC0			     ??005E  label   byte
1  2351	0BC0  0BB3r		       dw    qqqqq
1  2352	      =MYCSEG:0BBB	     qqqqq = ppppp
   2353	0BC2  04DFr			     DW	XPACK
   2354				      NF 'LOW'
1  2355	      =MYCSEG:0BC4	     ppppp = $
1  2356				       dstr2 'LOW',0
2  2357	0BC4  03		       db    ??005F-$-1+0
2  2358	0BC5  4C 4F 57		       db    'LOW'
2  2359	0BC8			     ??005F  label   byte
1  2360	0BC8  0BBBr		       dw    qqqqq
1  2361	      =MYCSEG:0BC4	     qqqqq = ppppp
   2362	0BCA  0314r		     TLOW    DW	XLO
   2363				      NF 'UNPACK'
1  2364	      =MYCSEG:0BCC	     ppppp = $
1  2365				       dstr2 'UNPACK',0
2  2366	0BCC  06		       db    ??0060-$-1+0
2  2367	0BCD  55 4E 50 41 43 4B	       db    'UNPACK'
2  2368	0BD3			     ??0060  label   byte
1  2369	0BD3  0BC4r		       dw    qqqqq
1  2370	      =MYCSEG:0BCC	     qqqqq = ppppp
   2371	0BD5  04D8r			     DW	XUNPACK
   2372				      NF 'OR'
1  2373	      =MYCSEG:0BD7	     ppppp = $
1  2374				       dstr2 'OR',0
2  2375	0BD7  02		       db    ??0061-$-1+0
2  2376	0BD8  4F 52		       db    'OR'
2  2377	0BDA			     ??0061  label   byte
1  2378	0BDA  0BCCr		       dw    qqqqq
1  2379	      =MYCSEG:0BD7	     qqqqq = ppppp
   2380	0BDC  0243r			     DW	  XORE	     ; OR
   2381				      NF '+'
1  2382	      =MYCSEG:0BDE	     ppppp = $
1  2383				       dstr2 '+',0
2  2384	0BDE  01		       db    ??0062-$-1+0
2  2385	0BDF  2B		       db    '+'
2  2386	0BE0			     ??0062  label   byte
1  2387	0BE0  0BD7r		       dw    qqqqq
1  2388	      =MYCSEG:0BDE	     qqqqq = ppppp
   2389	0BE2  026Br		     tplus   DW	  XPLUS	     ; +
   2390				      NF 'D+'
1  2391	      =MYCSEG:0BE4	     ppppp = $
1  2392				       dstr2 'D+',0
2  2393	0BE4  02		       db    ??0063-$-1+0
2  2394	0BE5  44 2B		       db    'D+'
Turbo Assembler	 Version 3.2	    12/14/19 15:48:34	    Page 43
PT.asm



2  2395	0BE7			     ??0063  label   byte
1  2396	0BE7  0BDEr		       dw    qqqqq
1  2397	      =MYCSEG:0BE4	     qqqqq = ppppp
   2398	0BE9  03C2r			     DW	  XDPLUS     ; D+
   2399				      NF '-'
1  2400	      =MYCSEG:0BEB	     ppppp = $
1  2401				       dstr2 '-',0
2  2402	0BEB  01		       db    ??0064-$-1+0
2  2403	0BEC  2D		       db    '-'
2  2404	0BED			     ??0064  label   byte
1  2405	0BED  0BE4r		       dw    qqqqq
1  2406	      =MYCSEG:0BEB	     qqqqq = ppppp
   2407	0BEF  0269r		     tsubt   DW	  XSUBT	     ; -
   2408				      NF 'D-'
1  2409	      =MYCSEG:0BF1	     ppppp = $
1  2410				       dstr2 'D-',0
2  2411	0BF1  02		       db    ??0065-$-1+0
2  2412	0BF2  44 2D		       db    'D-'
2  2413	0BF4			     ??0065  label   byte
1  2414	0BF4  0BEBr		       dw    qqqqq
1  2415	      =MYCSEG:0BF1	     qqqqq = ppppp
   2416	0BF6  03BFr			     DW	  XDMINUS    ; D-
   2417				      NF '1-'
1  2418	      =MYCSEG:0BF8	     ppppp = $
1  2419				       dstr2 '1-',0
2  2420	0BF8  02		       db    ??0066-$-1+0
2  2421	0BF9  31 2D		       db    '1-'
2  2422	0BFB			     ??0066  label   byte
1  2423	0BFB  0BF1r		       dw    qqqqq
1  2424	      =MYCSEG:0BF8	     qqqqq = ppppp
   2425	0BFD  032Fr		     tonemi  DW	  XONEMI     ; 1-
   2426				      NF '2-'
1  2427	      =MYCSEG:0BFF	     ppppp = $
1  2428				       dstr2 '2-',0
2  2429	0BFF  02		       db    ??0067-$-1+0
2  2430	0C00  32 2D		       db    '2-'
2  2431	0C02			     ??0067  label   byte
1  2432	0C02  0BF8r		       dw    qqqqq
1  2433	      =MYCSEG:0BFF	     qqqqq = ppppp
   2434	0C04  032Er		     ttwomi  DW	  XTWOMI     ; 2-
   2435				      NF '1+'
1  2436	      =MYCSEG:0C06	     ppppp = $
1  2437				       dstr2 '1+',0
2  2438	0C06  02		       db    ??0068-$-1+0
2  2439	0C07  31 2B		       db    '1+'
2  2440	0C09			     ??0068  label   byte
1  2441	0C09  0BFFr		       dw    qqqqq
1  2442	      =MYCSEG:0C06	     qqqqq = ppppp
   2443	0C0B  0883r		     tonepl  DW	  ADRP1	    ; 1+
   2444				      NF '2+'
1  2445	      =MYCSEG:0C0D	     ppppp = $
1  2446				       dstr2 '2+',0
2  2447	0C0D  02		       db    ??0069-$-1+0
2  2448	0C0E  32 2B		       db    '2+'
2  2449	0C10			     ??0069  label   byte
1  2450	0C10  0C06r		       dw    qqqqq
1  2451	      =MYCSEG:0C0D	     qqqqq = ppppp
Turbo Assembler	 Version 3.2	    12/14/19 15:48:34	    Page 44
PT.asm



   2452	0C12  0882r		     TTWOPL  DW	  ADRP2	    ; 2+
   2453
   2454				     ;---------------^^^^^^^^  MATH  ^^^^^^^^^-------------------
   2455
   2456				     ; --------------------------IO  ------------------vvvvvvv
   2457
   2458				       NF 'CURSOR'
1  2459	      =MYCSEG:0C14	     ppppp = $
1  2460				       dstr2 'CURSOR',0
2  2461	0C14  06		       db    ??006A-$-1+0
2  2462	0C15  43 55 52 53 4F 52	       db    'CURSOR'
2  2463	0C1B			     ??006A  label   byte
1  2464	0C1B  0C0Dr		       dw    qqqqq
1  2465	      =MYCSEG:0C14	     qqqqq = ppppp
   2466	0C1D  0829r		     SET_CURS DW CURSIZE
   2467	0C1F  0845r		     TO_CURS  DW XY_GOTO
   2468	0C21  0835r		     GET_CURS DW GETCURS
   2469
   2470				       NF 'GOTOXY'
1  2471	      =MYCSEG:0C23	     ppppp = $
1  2472				       dstr2 'GOTOXY',0
2  2473	0C23  06		       db    ??006B-$-1+0
2  2474	0C24  47 4F 54 4F 58 59	       db    'GOTOXY'
2  2475	0C2A			     ??006B  label   byte
1  2476	0C2A  0C14r		       dw    qqqqq
1  2477	      =MYCSEG:0C23	     qqqqq = ppppp
   2478	0C2C  0845r		       DW XY_GOTO
   2479
   2480				      NF 'DERR'
1  2481	      =MYCSEG:0C2E	     ppppp = $
1  2482				       dstr2 'DERR',0
2  2483	0C2E  04		       db    ??006C-$-1+0
2  2484	0C2F  44 45 52 52	       db    'DERR'
2  2485	0C33			     ??006C  label   byte
1  2486	0C33  0C23r		       dw    qqqqq
1  2487	      =MYCSEG:0C2E	     qqqqq = ppppp
   2488	0C35  0666r 065Fr 0272r	      DW DOCON2,SETVAR1,DOVAR
   2489	0C3B  0000 0000	0000 0000 +  DERR DW 0,0,0,0,0
   2490	      0000
   2491
   2492				      NF 'SCRH'
1  2493	      =MYCSEG:0C45	     ppppp = $
1  2494				       dstr2 'SCRH',0
2  2495	0C45  04		       db    ??006D-$-1+0
2  2496	0C46  53 43 52 48	       db    'SCRH'
2  2497	0C4A			     ??006D  label   byte
1  2498	0C4A  0C2Er		       dw    qqqqq
1  2499	      =MYCSEG:0C45	     qqqqq = ppppp
   2500	0C4C  0667r 0660r	      DW DOCON1,SETVAR
   2501	0C50  FFFF		     SCRH DW -1
   2502
   2503				       NF 'ORDER#'
1  2504	      =MYCSEG:0C52	     ppppp = $
1  2505				       dstr2 'ORDER#',0
2  2506	0C52  06		       db    ??006E-$-1+0
2  2507	0C53  4F 52 44 45 52 23	       db    'ORDER#'
2  2508	0C59			     ??006E  label   byte
Turbo Assembler	 Version 3.2	    12/14/19 15:48:34	    Page 45
PT.asm



1  2509	0C59  0C45r		       dw    qqqqq
1  2510	      =MYCSEG:0C52	     qqqqq = ppppp
   2511	0C5B  0270r 072Cr 0721r	     TORDER: DW	DOVAR2,_HND_TO,_HND_AT
   2512	0C61  0001 0FEDr 0000 0000+	   DW  1,AFORTH+6,0,0,0,0,0,0,0
   2513	      0000 0000	0000 0000 +
   2514	      0000
   2515	0C73  0000 0000	0000 0000 +		      DW  0,0,0,0,0,0,0,0
   2516	      0000 0000	0000 0000
   2517
   2518				      NF 'OPEN'
1  2519	      =MYCSEG:0C83	     ppppp = $
1  2520				       dstr2 'OPEN',0
2  2521	0C83  04		       db    ??006F-$-1+0
2  2522	0C84  4F 50 45 4E	       db    'OPEN'
2  2523	0C88			     ??006F  label   byte
1  2524	0C88  0C52r		       dw    qqqqq
1  2525	      =MYCSEG:0C83	     qqqqq = ppppp
   2526	0C8A  0739r		     TOPEN DW XOPEN
   2527
   2528				      NF 'EOS-OFF'
1  2529	      =MYCSEG:0C8C	     ppppp = $
1  2530				       dstr2 'EOS-OFF',0
2  2531	0C8C  07		       db    ??0070-$-1+0
2  2532	0C8D  45 4F 53 2D 4F 46	46     db    'EOS-OFF'
2  2533	0C94			     ??0070  label   byte
1  2534	0C94  0C83r		       dw    qqqqq
1  2535	      =MYCSEG:0C8C	     qqqqq = ppppp
   2536	0C96  0218r 1924r 0D75r	  +  OPENED DW JSR,ZR,TOEOF,TEXIT
   2537	      08C3r
   2538
   2539				      NF 'FOPEN'
1  2540	      =MYCSEG:0C9E	     ppppp = $
1  2541				       dstr2 'FOPEN',0
2  2542	0C9E  05		       db    ??0071-$-1+0
2  2543	0C9F  46 4F 50 45 4E	       db    'FOPEN'
2  2544	0CA4			     ??0071  label   byte
1  2545	0CA4  0C8Cr		       dw    qqqqq
1  2546	      =MYCSEG:0C9E	     qqqqq = ppppp
   2547	0CA6  1ACAr 1068r 0C0Br	  +  OPENF: DW	JSR_TR,TBLWORD,TONEPL,TOPEN,TDUP,TZLESS,tsabrt
   2548	      0C8Ar 199Er 19DBr	  +
   2549	      120Dr
   2550					  dstr ' OPEN ERROR '
1  2551					  dstr2	' OPEN ERROR ',0
2  2552	0CB4  0C		       db    ??0072-$-1+0
2  2553	0CB5  20 4F 50 45 4E 20	45+    db    ' OPEN ERROR '
   2554	      52 52 4F 52 20
2  2555	0CC1			     ??0072  label   byte
   2556	0CC1  08F6r		      DW tex_tr
   2557
   2558				      NF 'CLOSE'
1  2559	      =MYCSEG:0CC3	     ppppp = $
1  2560				       dstr2 'CLOSE',0
2  2561	0CC3  05		       db    ??0073-$-1+0
2  2562	0CC4  43 4C 4F 53 45	       db    'CLOSE'
2  2563	0CC9			     ??0073  label   byte
1  2564	0CC9  0C9Er		       dw    qqqqq
1  2565	      =MYCSEG:0CC3	     qqqqq = ppppp
Turbo Assembler	 Version 3.2	    12/14/19 15:48:34	    Page 46
PT.asm



   2566	0CCB  073Fr		     TCLOSE: DW	XCLOSE
   2567	0CCD  04E7r 0EBEr	     TCLOSEF: DW  CALL_D2,XDROPH1
   2568
   2569					NF 'EOS-ON'
1  2570	      =MYCSEG:0CD1	     ppppp = $
1  2571				       dstr2 'EOS-ON',0
2  2572	0CD1  06		       db    ??0074-$-1+0
2  2573	0CD2  45 4F 53 2D 4F 4E	       db    'EOS-ON'
2  2574	0CD8			     ??0074  label   byte
1  2575	0CD8  0CC3r		       dw    qqqqq
1  2576	      =MYCSEG:0CD1	     qqqqq = ppppp
   2577	0CDA  0218r 191Er 0D75r	  +  TCLOSED: DW JSR,MO,TOEOF,TEXIT
   2578	      08C3r
   2579
   2580					     nf	'TYPE'
1  2581	      =MYCSEG:0CE2	     ppppp = $
1  2582				       dstr2 'TYPE',0
2  2583	0CE2  04		       db    ??0075-$-1+0
2  2584	0CE3  54 59 50 45	       db    'TYPE'
2  2585	0CE7			     ??0075  label   byte
1  2586	0CE7  0CD1r		       dw    qqqqq
1  2587	      =MYCSEG:0CE2	     qqqqq = ppppp
   2588	0CE9  1ACAr 0901r 0CF5r	     tTYPE:  dw	  jsr_TR,tFOR,@@2
   2589	0CEF  0983r 0D9Cr 090Br	     @@1:    dw	  tCOUNT,t?emit,tNEXT ;	,@@1  NOT NESESERY NOW
   2590	0CF5  1982r 08F6r	     @@2:    dw	  TDROP,tex_tr
   2591
   2592				      NF 'EXPECT'
1  2593	      =MYCSEG:0CF9	     ppppp = $
1  2594				       dstr2 'EXPECT',0
2  2595	0CF9  06		       db    ??0076-$-1+0
2  2596	0CFA  45 58 50 45 43 54	       db    'EXPECT'
2  2597	0D00			     ??0076  label   byte
1  2598	0D00  0CE2r		       dw    qqqqq
1  2599	      =MYCSEG:0CF9	     qqqqq = ppppp
   2600	0D02  1ACAr 19A7r 0926r	  +  texpect:dw	  jsr_TR,TDUP2,TCNTDO,T?DO,@@22
   2601	      0914r 0D66r
   2602	0D0C  0D92r 0BCAr 199Er	  +  @@1:    Dw	  TKEY,TLOW,TDUP,TI
   2603	      1A01r
   2604	0D14  09E1r 1903r		     Dw	  TCSTORE,blc
   2605	0D18  19D1r 19E2r 08E5r	  +	     Dw	  TULESS,tzeq,TZBRAN,@@15
   2606	      0D2Cr
   2607	0D20  1A01r 09E8r 0DA5r	  +	     Dw	  TI,TCAT,temit,one
   2608	      1932r
   2609	0D28  08DCr 0D62r		     dw	  tbran,@@21
   2610	0D2C  1A01r 09E8r 1915r	  +  @@15:   Dw	  TI,TCAT,cr,tof,@@16  ; cr?
   2611	      08EDr 0D3Er
   2612	0D36  1A01r 1A25r 0BEFr	  +	     dw	  ti,trot,tsubt,tleave ; I rot - leave
   2613	      0954r
   2614	0D3E  18FAr 08EDr 0D5Er	     @@16:   dw	  bs,tof,@@20		  ;backsp?
   2615	0D44  1A0Ar 1A01r 0BEFr	  +	     dw	  tover,ti,tsubt,tZbran,@@1
   2616	      08E5r 0D0Cr
   2617	0D4E  18FAr 199Er 0DA5r	  +	     dw	  bs,tdup,temit,tSPACE,temit	     ; bs blank	bs
   2618	      0D81r 0DA5r
   2619	0D58  191Er 08DCr 0D62r		     dw	  mo,tbran,@@21
   2620	0D5E  1982r 1924r	     @@20:   dw	  tdrop,zr
   2621	0D62  094Ar 0D0Cr	     @@21:   Dw	  TpLOOP,@@1
   2622	0D66  1894r 1982r 08F6r	     @@22:   Dw	  ToSpan,tdrop,tex_tr
Turbo Assembler	 Version 3.2	    12/14/19 15:48:34	    Page 47
PT.asm



   2623
   2624				       nf 'EOF?'
1  2625	      =MYCSEG:0D6C	     ppppp = $
1  2626				       dstr2 'EOF?',0
2  2627	0D6C  04		       db    ??0077-$-1+0
2  2628	0D6D  45 4F 46 3F	       db    'EOF?'
2  2629	0D71			     ??0077  label   byte
1  2630	0D71  0CF9r		       dw    qqqqq
1  2631	      =MYCSEG:0D6C	     qqqqq = ppppp
   2632	0D73  0667r		     EOF?:  dw DOCON1
   2633	0D75  0660r		     TOEOF  dw SETVAR
   2634	0D77  0000		     LASTCH DW 0
   2635
   2636				      NF 'SPACE'
1  2637	      =MYCSEG:0D79	     ppppp = $
1  2638				       dstr2 'SPACE',0
2  2639	0D79  05		       db    ??0078-$-1+0
2  2640	0D7A  53 50 41 43 45	       db    'SPACE'
2  2641	0D7F			     ??0078  label   byte
1  2642	0D7F  0D6Cr		       dw    qqqqq
1  2643	      =MYCSEG:0D79	     qqqqq = ppppp
   2644	0D81  07DCr		     tSPACE  DW	  xblank     ; BLANK
   2645
   2646				      NF '?KEY'
1  2647	      =MYCSEG:0D83	     ppppp = $
1  2648				       dstr2 '?KEY',0
2  2649	0D83  04		       db    ??0079-$-1+0
2  2650	0D84  3F 4B 45 59	       db    '?KEY'
2  2651	0D88			     ??0079  label   byte
1  2652	0D88  0D79r		       dw    qqqqq
1  2653	      =MYCSEG:0D83	     qqqqq = ppppp
   2654	0D8A  074Ar		     TQKEY   DW	  XQKEY	     ; ?KEY
   2655
   2656				      NF 'KEY'
1  2657	      =MYCSEG:0D8C	     ppppp = $
1  2658				       dstr2 'KEY',0
2  2659	0D8C  03		       db    ??007A-$-1+0
2  2660	0D8D  4B 45 59		       db    'KEY'
2  2661	0D90			     ??007A  label   byte
1  2662	0D90  0D83r		       dw    qqqqq
1  2663	      =MYCSEG:0D8C	     qqqqq = ppppp
   2664	0D92  0802r		     TKEY    DW	 XKEY
   2665
   2666				      NF '?EMIT'
1  2667	      =MYCSEG:0D94	     ppppp = $
1  2668				       dstr2 '?EMIT',0
2  2669	0D94  05		       db    ??007B-$-1+0
2  2670	0D95  3F 45 4D 49 54	       db    '?EMIT'
2  2671	0D9A			     ??007B  label   byte
1  2672	0D9A  0D8Cr		       dw    qqqqq
1  2673	      =MYCSEG:0D94	     qqqqq = ppppp
   2674	0D9C  07EAr		     T?EMIT   DW  X?EMIT
   2675
   2676				      NF 'EMIT'
1  2677	      =MYCSEG:0D9E	     ppppp = $
1  2678				       dstr2 'EMIT',0
2  2679	0D9E  04		       db    ??007C-$-1+0
Turbo Assembler	 Version 3.2	    12/14/19 15:48:34	    Page 48
PT.asm



2  2680	0D9F  45 4D 49 54	       db    'EMIT'
2  2681	0DA3			     ??007C  label   byte
1  2682	0DA3  0D94r		       dw    qqqqq
1  2683	      =MYCSEG:0D9E	     qqqqq = ppppp
   2684	0DA5  07E0r		     TEMIT   DW	 XEMIT
   2685
   2686				     ; ------------------  IO  -----------------^^^^^^^
   2687
   2688				     ; -------------TEXT INTERPRETTER	-------------vvvvvvvvvvv
   2689				       nf    'C>N'
1  2690	      =MYCSEG:0DA7	     ppppp = $
1  2691				       dstr2 'C>N',0
2  2692	0DA7  03		       db    ??007D-$-1+0
2  2693	0DA8  43 3E 4E		       db    'C>N'
2  2694	0DAB			     ??007D  label   byte
1  2695	0DAB  0D9Er		       dw    qqqqq
1  2696	      =MYCSEG:0DA7	     qqqqq = ppppp
   2697	0DAD  06B2r		     cfname  dw	XFNAME
   2698
   2699	0DAF			     dovoc:
   2700	0DAF  E8 F4C6		       call _does-2
   2701	0DB2  1855r 08C3r	       dw toCont,texit
   2702
   2703	0DB6			     doDef:
   2704	0DB6  E8 F4C0		       call _does-1
   2705	0DB9  1845r 08C3r	       dw toCurr,texit
   2706
   2707				       NFI '('
1  2708	      =MYCSEG:0DBD	     ppppp = $
1  2709				       dstr2 '(',080h
2  2710	0DBD  81		       db    ??007E-$-1+080h
2  2711	0DBE  28		       db    '('
2  2712	0DBF			     ??007E  label   byte
1  2713	0DBF  0DA7r		       dw    qqqqq
1  2714	      =MYCSEG:0DBD	     qqqqq = ppppp
   2715	0DC1  0218r 1358r 0029	  +    DW JSR,TLIT,')',TWORD,TDROP,TEXIT  ;
   2716	      1077r 1982r 08C3r
   2717
   2718				       NFI '-->'
1  2719	      =MYCSEG:0DCD	     ppppp = $
1  2720				       dstr2 '-->',080h
2  2721	0DCD  83		       db    ??007F-$-1+080h
2  2722	0DCE  2D 2D 3E		       db    '-->'
2  2723	0DD1			     ??007F  label   byte
1  2724	0DD1  0DBDr		       dw    qqqqq
1  2725	      =MYCSEG:0DCD	     qqqqq = ppppp
   2726	0DD3  0218r 1924r 186Br	  +  NEXTBLK  DW JSR,ZR,BLK@,TONEPL,TOSTREEM,TEXIT  ;
   2727	      0C0Br 0F9Ar 08C3r
   2728
   2729				       NF 'EXECUTE'
1  2730	      =MYCSEG:0DDF	     ppppp = $
1  2731				       dstr2 'EXECUTE',0
2  2732	0DDF  07		       db    ??0080-$-1+0
2  2733	0DE0  45 58 45 43 55 54	45     db    'EXECUTE'
2  2734	0DE7			     ??0080  label   byte
1  2735	0DE7  0DCDr		       dw    qqqqq
1  2736	      =MYCSEG:0DDF	     qqqqq = ppppp
Turbo Assembler	 Version 3.2	    12/14/19 15:48:34	    Page 49
PT.asm



   2737	0DE9  0218r 1951r 08C3r	     XEXECUT  DW JSR,TTOR,TEXIT
   2738
   2739				       NF 'IO!'
1  2740	      =MYCSEG:0DEF	     ppppp = $
1  2741				       dstr2 'IO!',0
2  2742	0DEF  03		       db    ??0081-$-1+0
2  2743	0DF0  49 4F 21		       db    'IO!'
2  2744	0DF3			     ??0081  label   byte
1  2745	0DF3  0DDFr		       dw    qqqqq
1  2746	      =MYCSEG:0DEF	     qqqqq = ppppp
   2747	0DF5  0218r 186Br 0BB9r	  +  IO? DW JSR,BLK@,TNOT,TZBRAN,IO?2,STDIO,TEXIT
   2748	      08E5r 0E03r 07BEr	  +
   2749	      08C3r
   2750	0E03  07CAr 08C3r	     IO?2 DW FILEIO,TEXIT
   2751
   2752				       NF 'OK?'
1  2753	      =MYCSEG:0E07	     ppppp = $
1  2754				       dstr2 'OK?',0
2  2755	0E07  03		       db    ??0082-$-1+0
2  2756	0E08  4F 4B 3F		       db    'OK?'
2  2757	0E0B			     ??0082  label   byte
1  2758	0E0B  0DEFr		       dw    qqqqq
1  2759	      =MYCSEG:0E07	     qqqqq = ppppp
   2760	0E0D  0218r 186Br 08E5r	  +  TOK DW JSR,BLK@,TZBRAN,TOK2,TRPAT,TCR,TEXIT
   2761	      0E1Br 08F4r 0E2Er	  +
   2762	      08C3r
   2763	0E1B  1255r		     TOK2 DW T_SDOT
   2764					  dstr ' Ok'
1  2765					  dstr2	' Ok',0
2  2766	0E1D  03		       db    ??0083-$-1+0
2  2767	0E1E  20 4F 6B		       db    ' Ok'
2  2768	0E21			     ??0083  label   byte
   2769	0E21  0E2Er 08F4r 0D81r	  +	  DW TCR,TRPAT,TSPACE,TEXIT
   2770	      08C3r
   2771
   2772				       nf 'CR'
1  2773	      =MYCSEG:0E29	     ppppp = $
1  2774				       dstr2 'CR',0
2  2775	0E29  02		       db    ??0084-$-1+0
2  2776	0E2A  43 52		       db    'CR'
2  2777	0E2C			     ??0084  label   byte
1  2778	0E2C  0E07r		       dw    qqqqq
1  2779	      =MYCSEG:0E29	     qqqqq = ppppp
   2780	0E2E  0218r 1915r 0DA5r	  +  tCR:    dw	  jsr,cr,temit,lf,temit,ZR,TOoUTC,texit
   2781	      190Cr 0DA5r 1924r	  +
   2782	      18ADr 08C3r
   2783
   2784				       nf    'REFILL'
1  2785	      =MYCSEG:0E3E	     ppppp = $
1  2786				       dstr2 'REFILL',0
2  2787	0E3E  06		       db    ??0085-$-1+0
2  2788	0E3F  52 45 46 49 4C 4C	       db    'REFILL'
2  2789	0E45			     ??0085  label   byte
1  2790	0E45  0E29r		       dw    qqqqq
1  2791	      =MYCSEG:0E3E	     qqqqq = ppppp
   2792	0E47  1ACAr 185Fr 1358r	  +  REFILL  dw	jsr_TR,tib@,Tlit,80,texpect
   2793	      0050 0D02r
Turbo Assembler	 Version 3.2	    12/14/19 15:48:34	    Page 50
PT.asm



   2794	0E51  1924r 1879r 185Fr	  +	     DW	ZR,toToIn,tib@,span@,tplus,tZStor,tex_tr
   2795	      1892r 0BE2r 09B6r	  +
   2796	      08F6r
   2797
   2798				       NF   '1LINE'
1  2799	      =MYCSEG:0E5F	     ppppp = $
1  2800				       dstr2 '1LINE',0
2  2801	0E5F  05		       db    ??0086-$-1+0
2  2802	0E60  31 4C 49 4E 45	       db    '1LINE'
2  2803	0E65			     ??0086  label   byte
1  2804	0E65  0E3Er		       dw    qqqqq
1  2805	      =MYCSEG:0E5F	     qqqqq = ppppp
   2806	0E67  0218r 0E0Dr 0E47r	  +  LINE1 DW JSR,TOK,REFILL,TRPAT,AINT,TEXIT
   2807	      08F4r 1093r 08C3r
   2808
   2809				       NF '(CLOSE'
1  2810	      =MYCSEG:0E73	     ppppp = $
1  2811				       dstr2 '(CLOSE',0
2  2812	0E73  06		       db    ??0087-$-1+0
2  2813	0E74  28 43 4C 4F 53 45	       db    '(CLOSE'
2  2814	0E7A			     ??0087  label   byte
1  2815	0E7A  0E5Fr		       dw    qqqqq
1  2816	      =MYCSEG:0E73	     qqqqq = ppppp
   2817	0E7C  0218r		     ZZCLOSE  DW JSR
   2818	0E7E  0EA6r 08E5r 0E98r	  +	     DW	  HND,TZBRAN,@@1,HND+4
   2819	      0EAAr
   2820	0E86  0CCBr 1982r 0EA6r		     DW	  TCLOSE,TDROP,HND
   2821	0E8C  19E2r 08E5r 0E98r		     DW	  TZEQ,TZBRAN,@@1
   2822	0E92  1924r 186Dr 07BEr		     DW	  ZR,TOBLK,STDIO
   2823	0E98  0CDAr 08C3r	     @@1:    DW	  TCLOSED,TEXIT
   2824
   2825				       NF 'HANDLES'
1  2826	      =MYCSEG:0E9C	     ppppp = $
1  2827				       dstr2 'HANDLES',0
2  2828	0E9C  07		       db    ??0088-$-1+0
2  2829	0E9D  48 41 4E 44 4C 45	53     db    'HANDLES'
2  2830	0EA4			     ??0088  label   byte
1  2831	0EA4  0E73r		       dw    qqqqq
1  2832	      =MYCSEG:0E9C	     qqqqq = ppppp
   2833	0EA6  0666r 072Cr 0721r	     HND: DW DOCON2,_HND_TO,_HND_AT
   2834	0EAC  0000 0000	0000 0000 +  handles dw	  0,0,0,0,0,0,0,0,0
   2835	      0000 0000	0000 0000 +
   2836	      0000
   2837	0EBE  E8 F458		     xDROPH1:CALL SUB4TH
   2838	0EC1  0E7Cr 08CCr		     DW	  ZZCLOSE,TRETF
   2839	0EC5  B0 0D			     MOV  al,0dh
   2840	0EC7  C3			     RET
   2841
   2842				       NF ';TI'
1  2843	      =MYCSEG:0EC8	     ppppp = $
1  2844				       dstr2 ';TI',0
2  2845	0EC8  03		       db    ??0089-$-1+0
2  2846	0EC9  3B 54 49		       db    ';TI'
2  2847	0ECC			     ??0089  label   byte
1  2848	0ECC  0E9Cr		       dw    qqqqq
1  2849	      =MYCSEG:0EC8	     qqqqq = ppppp
   2850	0ECE  0218r		     XINTER: DW	JSR
Turbo Assembler	 Version 3.2	    12/14/19 15:48:34	    Page 51
PT.asm



   2851	0ED0  1948r 186Br 1951r	  +	     DW	TRFR,BLK@,TTOR,TOIN@,TTOR,TIB@,TTOR,TTOR,TRPAT
   2852	      1877r 1951r 185Fr	  +
   2853	      1951r 1951r 08F4r
   2854	0EE2  1948r 1861r 1948r	  +	     DW	TRFR,TOTIB,TRFR,TRFR,TOSTREEM,TEXIT
   2855	      1948r 0F9Ar 08C3r
   2856
   2857				       NF ';RBUF'
1  2858	      =MYCSEG:0EEE	     ppppp = $
1  2859				       dstr2 ';RBUF',0
2  2860	0EEE  05		       db    ??008A-$-1+0
2  2861	0EEF  3B 52 42 55 46	       db    ';RBUF'
2  2862	0EF4			     ??008A  label   byte
1  2863	0EF4  0EC8r		       dw    qqqqq
1  2864	      =MYCSEG:0EEE	     qqqqq = ppppp
   2865	0EF6  0218r 1948r 1971r	  +  XBUF DW JSR,TPOP,TRPGT,TROT,TSUBT,TRPGT,TOVER
   2866	      1A25r 0BEFr 1971r	  +
   2867	      1A0Ar
   2868	0F04  1979r 1951r 1A50r	  +	  DW TRPST,TPUSH,TSWAP,TPUSH,TRPAT,TPOP,TRPST,TEXIT
   2869	      1951r 08F4r 1948r	  +
   2870	      1979r 08C3r
   2871
   2872				       NF 'EVAL'
1  2873	      =MYCSEG:0F14	     ppppp = $
1  2874				       dstr2 'EVAL',0
2  2875	0F14  04		       db    ??008B-$-1+0
2  2876	0F15  45 56 41 4C	       db    'EVAL'
2  2877	0F19			     ??008B  label   byte
1  2878	0F19  0EEEr		       dw    qqqqq
1  2879	      =MYCSEG:0F14	     qqqqq = ppppp
   2880	0F1B  0218r 0ECEr 1924r	  +  TEVAL:  DW	JSR,XINTER,ZR,TOSTREEM,ZR,TOTIB,AINT,TEXIT
   2881	      0F9Ar 1924r 1861r	  +
   2882	      1093r 08C3r
   2883
   2884				       NF 'LOAD'
1  2885	      =MYCSEG:0F2B	     ppppp = $
1  2886				       dstr2 'LOAD',0
2  2887	0F2B  04		       db    ??008C-$-1+0
2  2888	0F2C  4C 4F 41 44	       db    'LOAD'
2  2889	0F30			     ??008C  label   byte
1  2890	0F30  0F14r		       dw    qqqqq
1  2891	      =MYCSEG:0F2B	     qqqqq = ppppp
   2892	0F32  0218r 0ECEr 1924r	  +  TLOAD:  DW	JSR,XINTER,ZR,TSWAP,TOSTREEM,AINT,TEXIT
   2893	      1A50r 0F9Ar 1093r	  +
   2894	      08C3r
   2895
   2896				      NF 'NBLK'
1  2897	      =MYCSEG:0F40	     ppppp = $
1  2898				       dstr2 'NBLK',0
2  2899	0F40  04		       db    ??008D-$-1+0
2  2900	0F41  4E 42 4C 4B	       db    'NBLK'
2  2901	0F45			     ??008D  label   byte
1  2902	0F45  0F2Br		       dw    qqqqq
1  2903	      =MYCSEG:0F40	     qqqqq = ppppp
   2904	0F47  0537r 185Fr 185Fr	  +  TVBLK DW XVBLK,TIB@,TIB@,TNOP
   2905	      1A7Br
   2906
   2907				      nf  '?,'
Turbo Assembler	 Version 3.2	    12/14/19 15:48:34	    Page 52
PT.asm



1  2908	      =MYCSEG:0F4F	     ppppp = $
1  2909				       dstr2 '?,',0
2  2910	0F4F  02		       db    ??008E-$-1+0
2  2911	0F50  3F 2C		       db    '?,'
2  2912	0F52			     ??008E  label   byte
1  2913	0F52  0F40r		       dw    qqqqq
1  2914	      =MYCSEG:0F4F	     qqqqq = ppppp
   2915	0F54  0541r 0547r 054Er	     tqcomm: dw	xqcomm,XNONA2,XNONAME
   2916
   2917				      NF 'EXEC'
1  2918	      =MYCSEG:0F5A	     ppppp = $
1  2919				       dstr2 'EXEC',0
2  2920	0F5A  04		       db    ??008F-$-1+0
2  2921	0F5B  45 58 45 43	       db    'EXEC'
2  2922	0F5F			     ??008F  label   byte
1  2923	0F5F  0F4Fr		       dw    qqqqq
1  2924	      =MYCSEG:0F5A	     qqqqq = ppppp
   2925	0F61  050Dr		     texec   DW	  XEXEC	     ; EXEC
   2926
   2927				      NF '?EXEC'
1  2928	      =MYCSEG:0F63	     ppppp = $
1  2929				       dstr2 '?EXEC',0
2  2930	0F63  05		       db    ??0090-$-1+0
2  2931	0F64  3F 45 58 45 43	       db    '?EXEC'
2  2932	0F69			     ??0090  label   byte
1  2933	0F69  0F5Ar		       dw    qqqqq
1  2934	      =MYCSEG:0F63	     qqqqq = ppppp
   2935	0F6B  0509r		     aqexec  DW	  xqexec     ; ?EXEC
   2936
   2937				      NF 'LOCATE'
1  2938	      =MYCSEG:0F6D	     ppppp = $
1  2939				       dstr2 'LOCATE',0
2  2940	0F6D  06		       db    ??0091-$-1+0
2  2941	0F6E  4C 4F 43 41 54 45	       db    'LOCATE'
2  2942	0F74			     ??0091  label   byte
1  2943	0F74  0F63r		       dw    qqqqq
1  2944	      =MYCSEG:0F6D	     qqqqq = ppppp
   2945	0F76  0218r 103Ar 1A1Dr	  +  apos0 DW JSR,TBLFIND,TQDUP,TZEQ,TSABRT,'?'*256+1,TEXIT
   2946	      19E2r 120Dr 3F01	  +
   2947	      08C3r
   2948
   2949				      NF 'PERFORM'
1  2950	      =MYCSEG:0F84	     ppppp = $
1  2951				       dstr2 'PERFORM',0
2  2952	0F84  07		       db    ??0092-$-1+0
2  2953	0F85  50 45 52 46 4F 52	4D     db    'PERFORM'
2  2954	0F8C			     ??0092  label   byte
1  2955	0F8C  0F6Dr		       dw    qqqqq
1  2956	      =MYCSEG:0F84	     qqqqq = ppppp
   2957	0F8E  0507r		     tperf   DW	  XPERF	     ; PERFORM
   2958
   2959				      NF '>STREAM'
1  2960	      =MYCSEG:0F90	     ppppp = $
1  2961				       dstr2 '>STREAM',0
2  2962	0F90  07		       db    ??0093-$-1+0
2  2963	0F91  3E 53 54 52 45 41	4D     db    '>STREAM'
2  2964	0F98			     ??0093  label   byte
Turbo Assembler	 Version 3.2	    12/14/19 15:48:34	    Page 53
PT.asm



1  2965	0F98  0F84r		       dw    qqqqq
1  2966	      =MYCSEG:0F90	     qqqqq = ppppp
   2967	0F9A  0218r 186Dr 1879r	  +  TOSTREEM  DW JSR,TOBLK,TOTOIN,TEXIT
   2968	      08C3r
   2969
   2970				       NF '''ERR'
1  2971	      =MYCSEG:0FA2	     ppppp = $
1  2972				       dstr2 '''ERR',0
2  2973	0FA2  04		       db    ??0094-$-1+0
2  2974	0FA3  27 45 52 52	       db    '''ERR'
2  2975	0FA7			     ??0094  label   byte
1  2976	0FA7  0F90r		       dw    qqqqq
1  2977	      =MYCSEG:0FA2	     qqqqq = ppppp
   2978	0FA9  052Er 0660r 0000	     erINI DW  ExecAt1,SETVAR,0
   2979
   2980				       nf 'F83'	     ; INIT INTERPRETTER & COMPILER
1  2981	      =MYCSEG:0FAF	     ppppp = $
1  2982				       dstr2 'F83',0
2  2983	0FAF  03		       db    ??0095-$-1+0
2  2984	0FB0  46 38 33		       db    'F83'
2  2985	0FB3			     ??0095  label   byte
1  2986	0FB3  0FA2r		       dw    qqqqq
1  2987	      =MYCSEG:0FAF	     qqqqq = ppppp
   2988	0FB5  1ACAr 119Fr 0FE7r	  +  TF83  DW JSR_TR,decim,Aforth,aforth+2
   2989	      0FE9r
   2990	0FBD  1358r 1163r 1158r		   DW TLIT,ACTOI2,ACTOI+2
   2991	0FC3  1358r 1049r 103Cr		   DW TLIT,tblfind2,tblfind+2
   2992	0FC9  1358r 14E9r 14DDr		   DW TLIT,TZLIT2,TZLIT+2
   2993	0FCF  1358r 109Er 1358r	  +	   DW TLIT,AINT1,TLIT,AINT+2,TSTORE1
   2994	      1095r 09C6r
   2995	0FD9  1924r 16CEr		   DW ZR,DADR+2
   2996	0FDD  08F6r			   DW  tex_tr
   2997
   2998				       nf 'FORTH'
1  2999	      =MYCSEG:0FDF	     ppppp = $
1  3000				       dstr2 'FORTH',0
2  3001	0FDF  05		       db    ??0096-$-1+0
2  3002	0FE0  46 4F 52 54 48	       db    'FORTH'
2  3003	0FE5			     ??0096  label   byte
1  3004	0FE5  0FAFr		       dw    qqqqq
1  3005	      =MYCSEG:0FDF	     qqqqq = ppppp
   3006	0FE7  0DAFr 0DB6r 0272r	  +  Aforth: dw	DoVoc,dodef,dovar,lastw,0
   3007	      1C08r 0000
   3008
   3009				      NF ''''
1  3010	      =MYCSEG:0FF1	     ppppp = $
1  3011				       dstr2 '''',0
2  3012	0FF1  01		       db    ??0097-$-1+0
2  3013	0FF2  27		       db    ''''
2  3014	0FF3			     ??0097  label   byte
1  3015	0FF3  0FDFr		       dw    qqqqq
1  3016	      =MYCSEG:0FF1	     qqqqq = ppppp
   3017	0FF5  0218r 0F76r 1982r	  +  apos DW JSR,APOS0,TDROP,TEXIT
   3018	      08C3r
   3019
   3020				      NF '(find'
1  3021	      =MYCSEG:0FFD	     ppppp = $
Turbo Assembler	 Version 3.2	    12/14/19 15:48:34	    Page 54
PT.asm



1  3022				       dstr2 '(find',0
2  3023	0FFD  05		       db    ??0098-$-1+0
2  3024	0FFE  28 66 69 6E 64	       db    '(find'
2  3025	1003			     ??0098  label   byte
1  3026	1003  0FF1r		       dw    qqqqq
1  3027	      =MYCSEG:0FFD	     qqqqq = ppppp
   3028	1005  056Br		     T_FIND DW X_FIND
   3029
   3030				      NF 'FIND'
1  3031	      =MYCSEG:1007	     ppppp = $
1  3032				       dstr2 'FIND',0
2  3033	1007  04		       db    ??0099-$-1+0
2  3034	1008  46 49 4E 44	       db    'FIND'
2  3035	100C			     ??0099  label   byte
1  3036	100C  0FFDr		       dw    qqqqq
1  3037	      =MYCSEG:1007	     qqqqq = ppppp
   3038	100E  0218r		     tfind: dw jsr
   3039	1010  1A25r 1951r 191Er	  +	DW    TROT,TTOR,MO,TMROT ; ttor,mo,TORDER,TWCOUNT
   3040	      1A2Er
   3041	1018  0901r 1024r 0994r	  +	DW    TFOR,@@1,TWCOUNT,TFETCH,TSWAP,TNEXT
   3042	      09D3r 1A50r 090Br
   3043	1024  1982r 1853r 09D3r	  +  @@1: DW  TDROP,CONT@,TFETCH,trfr,t_FIND,TQCOMM+2,TEXIT
   3044	      1948r 1005r 0F56r	  +
   3045	      08C3r
   3046
   3047				      nf '-FIND'
1  3048	      =MYCSEG:1032	     ppppp = $
1  3049				       dstr2 '-FIND',0
2  3050	1032  05		       db    ??009A-$-1+0
2  3051	1033  2D 46 49 4E 44	       db    '-FIND'
2  3052	1038			     ??009A  label   byte
1  3053	1038  1007r		       dw    qqqqq
1  3054	      =MYCSEG:1032	     qqqqq = ppppp
   3055	103A  052Er 0660r 1049r	     tblfind  DW  ExecAt1,SETVAR,tblfind2
   3056
   3057				      NF '(-FIND'
1  3058	      =MYCSEG:1040	     ppppp = $
1  3059				       dstr2 '(-FIND',0
2  3060	1040  06		       db    ??009B-$-1+0
2  3061	1041  28 2D 46 49 4E 44	       db    '(-FIND'
2  3062	1047			     ??009B  label   byte
1  3063	1047  1032r		       dw    qqqqq
1  3064	      =MYCSEG:1040	     qqqqq = ppppp
   3065	1049  1ACAr 1068r 0C5Br	  +  tblfind2 DW JSR_TR,TBLWORD,TORDER,TWCOUNT,TFIND,tex_tr
   3066	      0994r 100Er 08F6r
   3067
   3068				      NF '(WORD'
1  3069	      =MYCSEG:1055	     ppppp = $
1  3070				       dstr2 '(WORD',0
2  3071	1055  05		       db    ??009C-$-1+0
2  3072	1056  28 57 4F 52 44	       db    '(WORD'
2  3073	105B			     ??009C  label   byte
1  3074	105B  1040r		       dw    qqqqq
1  3075	      =MYCSEG:1055	     qqqqq = ppppp
   3076	105D  05B8r		     T_W DW X_W
   3077
   3078				      NF 'BLWORD'
Turbo Assembler	 Version 3.2	    12/14/19 15:48:34	    Page 55
PT.asm



1  3079	      =MYCSEG:105F	     ppppp = $
1  3080				       dstr2 'BLWORD',0
2  3081	105F  06		       db    ??009D-$-1+0
2  3082	1060  42 4C 57 4F 52 44	       db    'BLWORD'
2  3083	1066			     ??009D  label   byte
1  3084	1066  1055r		       dw    qqqqq
1  3085	      =MYCSEG:105F	     qqqqq = ppppp
   3086	1068  0218r 1903r 1077r	  +  TBLWORD DW	JSR,BLC,TWORD,TEXIT
   3087	      08C3r
   3088
   3089				      NF 'WORD'
1  3090	      =MYCSEG:1070	     ppppp = $
1  3091				       dstr2 'WORD',0
2  3092	1070  04		       db    ??009E-$-1+0
2  3093	1071  57 4F 52 44	       db    'WORD'
2  3094	1075			     ??009E  label   byte
1  3095	1075  105Fr		       dw    qqqqq
1  3096	      =MYCSEG:1070	     qqqqq = ppppp
   3097	1077  1ACAr 186Br 0F47r	  +  TWORD:   DW  JSR_TR,BLK@,TVBLK,TOin@,Here,t_W,toTOin,tex_tr
   3098	      1877r 16E7r 105Dr	  +
   3099	      1879r 08F6r
   3100
   3101				      NF 'INTERPRET'
1  3102	      =MYCSEG:1087	     ppppp = $
1  3103				       dstr2 'INTERPRET',0
2  3104	1087  09		       db    ??009F-$-1+0
2  3105	1088  49 4E 54 45 52 50	52+    db    'INTERPRET'
   3106	      45 54
2  3107	1091			     ??009F  label   byte
1  3108	1091  1070r		       dw    qqqqq
1  3109	      =MYCSEG:1087	     qqqqq = ppppp
   3110	1093  052Fr 109Er	     Aint: DW EXECAT,AINT1   ; DEFER WORD
   3111
   3112				      NF '(INT'
1  3113	      =MYCSEG:1097	     ppppp = $
1  3114				       dstr2 '(INT',0
2  3115	1097  04		       db    ??00A0-$-1+0
2  3116	1098  28 49 4E 54	       db    '(INT'
2  3117	109C			     ??00A0  label   byte
1  3118	109C  1087r		       dw    qqqqq
1  3119	      =MYCSEG:1097	     qqqqq = ppppp
   3120	109E  021Er 103Ar 1A1Dr	  +  AINT1:  DW	XJMP,TBLfind,TQdup,TzBRAN,@@2,tQcomm,Aint
   3121	      08E5r 10ACr 0F54r	  +
   3122	      1093r
   3123	10AC  1156r 14DBr 1093r	  +  @@2  dw actoi,TZLIT,Aint,TEXIT
   3124	      08C3r
   3125
   3126				       NF 'CLOSALL'
1  3127	      =MYCSEG:10B4	     ppppp = $
1  3128				       dstr2 'CLOSALL',0
2  3129	10B4  07		       db    ??00A1-$-1+0
2  3130	10B5  43 4C 4F 53 41 4C	4C     db    'CLOSALL'
2  3131	10BC			     ??00A1  label   byte
1  3132	10BC  1097r		       dw    qqqqq
1  3133	      =MYCSEG:10B4	     qqqqq = ppppp
   3134	10BE  0218r		     ZCLOSE: DW	JSR
   3135	10C0  0EA6r 08E5r 10CCr	  +  @@1    dw	HND,TZBRAN,@@2,TCLOSEF,TBRAN,@@1
Turbo Assembler	 Version 3.2	    12/14/19 15:48:34	    Page 56
PT.asm



   3136	      0CCDr 08DCr 10C0r
   3137	10CC  08C3r		     @@2    DW	TEXIT
   3138
   3139				       nf 'ABORT'
1  3140	      =MYCSEG:10CE	     ppppp = $
1  3141				       dstr2 'ABORT',0
2  3142	10CE  05		       db    ??00A2-$-1+0
2  3143	10CF  41 42 4F 52 54	       db    'ABORT'
2  3144	10D4			     ??00A2  label   byte
1  3145	10D4  10B4r		       dw    qqqqq
1  3146	      =MYCSEG:10CE	     qqqqq = ppppp
   3147	10D6  0155r		     ABORT: DW XABORT
   3148
   3149				       NF 'QUIT'
1  3150	      =MYCSEG:10D8	     ppppp = $
1  3151				       dstr2 'QUIT',0
2  3152	10D8  04		       db    ??00A3-$-1+0
2  3153	10D9  51 55 49 54	       db    'QUIT'
2  3154	10DD			     ??00A3  label   byte
1  3155	10DD  10CEr		       dw    qqqqq
1  3156	      =MYCSEG:10D8	     qqqqq = ppppp
   3157	10DF  021Er 1146r 10DFr	  +  TQUIT: DW	XJMP,LOADKBD,TQUIT,TEXIT
   3158	      08C3r
   3159
   3160				       NF 'SEVAL'
1  3161	      =MYCSEG:10E7	     ppppp = $
1  3162				       dstr2 'SEVAL',0
2  3163	10E7  05		       db    ??00A4-$-1+0
2  3164	10E8  53 45 56 41 4C	       db    'SEVAL'
2  3165	10ED			     ??00A4  label   byte
1  3166	10ED  10D8r		       dw    qqqqq
1  3167	      =MYCSEG:10E7	     qqqqq = ppppp
   3168	10EF  0218r 0ECEr 186Dr	  +  SEVAL  DW JSR,XINTER,TOBLK,IO?,TLIT,90,XBUF,TOTIB,OPENED
   3169	      0DF5r 1358r 005A	  +
   3170	      0EF6r 1861r 0C96r
   3171	1101  0E67r 0D73r 19DBr	  +  SEVAL2 DW LINE1,EOF?,TZLESS,TZBRAN,SEVAL2,OPENED,TEXIT
   3172	      08E5r 1101r 0C96r	  +
   3173	      08C3r
   3174
   3175				       NF 'FLOAD'    ; : FLOAD FOPEN  -1 SEVAL ?IO ;
1  3176	      =MYCSEG:110F	     ppppp = $
1  3177				       dstr2 'FLOAD',0
2  3178	110F  05		       db    ??00A5-$-1+0
2  3179	1110  46 4C 4F 41 44	       db    'FLOAD'
2  3180	1115			     ??00A5  label   byte
1  3181	1115  10E7r		       dw    qqqqq
1  3182	      =MYCSEG:110F	     qqqqq = ppppp
   3183	1117  0218r 0EA6r 18FAr	  +  LOADF: DW	JSR,HND,BS,TSUBT,TZEQ,TSABRT
   3184	      0BEFr 19E2r 120Dr
   3185					  dstr ' TOO MUCH FILES	'
1  3186					  dstr2	' TOO MUCH FILES ',0
2  3187	1123  10		       db    ??00A6-$-1+0
2  3188	1124  20 54 4F 4F 20 4D	55+    db    ' TOO MUCH	FILES '
   3189	      43 48 20 46 49 4C	45+
   3190	      53 20
2  3191	1134			     ??00A6  label   byte
   3192	1134  0CA6r 0EA8r 191Er	  +    DW  OPENF,HND+2,MO,SEVAL,IO?,texIt
Turbo Assembler	 Version 3.2	    12/14/19 15:48:34	    Page 57
PT.asm



   3193	      10EFr 0DF5r 08C3r
   3194
   3195				       NF 'KBD'	     ;	: KBD  0 SEVAL ?IO ;
1  3196	      =MYCSEG:1140	     ppppp = $
1  3197				       dstr2 'KBD',0
2  3198	1140  03		       db    ??00A7-$-1+0
2  3199	1141  4B 42 44		       db    'KBD'
2  3200	1144			     ??00A7  label   byte
1  3201	1144  110Fr		       dw    qqqqq
1  3202	      =MYCSEG:1140	     qqqqq = ppppp
   3203	1146  1ACAr 1924r 10EFr	  +  LOADKBD DW	JSR_TR,ZR,SEVAL,IO?,tex_tr
   3204	      0DF5r 08F6r
   3205
   3206				       nf    'NUM'
1  3207	      =MYCSEG:1150	     ppppp = $
1  3208				       dstr2 'NUM',0
2  3209	1150  03		       db    ??00A8-$-1+0
2  3210	1151  4E 55 4D		       db    'NUM'
2  3211	1154			     ??00A8  label   byte
1  3212	1154  1140r		       dw    qqqqq
1  3213	      =MYCSEG:1150	     qqqqq = ppppp
   3214	1156  052Er 0660r 1163r	     Actoi  DW	ExecAt1,SETVAR,ACTOI2
   3215
   3216				       NF '(NUM'
1  3217	      =MYCSEG:115C	     ppppp = $
1  3218				       dstr2 '(NUM',0
2  3219	115C  04		       db    ??00A9-$-1+0
2  3220	115D  28 4E 55 4D	       db    '(NUM'
2  3221	1161			     ??00A9  label   byte
1  3222	1161  1150r		       dw    qqqqq
1  3223	      =MYCSEG:115C	     qqqqq = ppppp
   3224	1163  1ACAr 199Er 0983r	  +  Actoi2:  dw jsr_TR,tdup,tcount,tplus,ttor
   3225	      0BE2r 1951r
   3226	116D  18E6r 191Er 199Er	  +    dw  base@,mo,Tdup,ttor,zr,TC2I,TONEPL
   3227	      1951r 1924r 11A3r	  +
   3228	      0C0Br
   3229	117B  08E5r 1181r 0B20r	       dw    tzbran,@@1,tdnegat
   3230	1181  1948r 18A0r 1948r	  +   @@1: dw trfr,toDbl,tRfr,TSABRT
   3231	      120Dr
   3232					  dstr 'Not Found'
1  3233					  dstr2	'Not Found',0
2  3234	1189  09		       db    ??00AA-$-1+0
2  3235	118A  4E 6F 74 20 46 6F	75+    db    'Not Found'
   3236	      6E 64
2  3237	1193			     ??00AA  label   byte
   3238	1193  08F6r		       DW Tex_tr
   3239
   3240				       nf 'DECIMAL'
1  3241	      =MYCSEG:1195	     ppppp = $
1  3242				       dstr2 'DECIMAL',0
2  3243	1195  07		       db    ??00AB-$-1+0
2  3244	1196  44 45 43 49 4D 41	4C     db    'DECIMAL'
2  3245	119D			     ??00AB  label   byte
1  3246	119D  115Cr		       dw    qqqqq
1  3247	      =MYCSEG:1195	     qqqqq = ppppp
   3248	119F  178Br		     decim dw xbase
   3249	11A1  0A 00			   db  10,0
Turbo Assembler	 Version 3.2	    12/14/19 15:48:34	    Page 58
PT.asm



   3250	11A3  05EDr		     TC2I: DW XC2I
   3251
   3252				       nf 'HEX'
1  3253	      =MYCSEG:11A5	     ppppp = $
1  3254				       dstr2 'HEX',0
2  3255	11A5  03		       db    ??00AC-$-1+0
2  3256	11A6  48 45 58		       db    'HEX'
2  3257	11A9			     ??00AC  label   byte
1  3258	11A9  1195r		       dw    qqqqq
1  3259	      =MYCSEG:11A5	     qqqqq = ppppp
   3260	11AB  178Br			   dw xbase
   3261	11AD  10			   db  16
   3262
   3263				       nf 'OCTAL'
1  3264	      =MYCSEG:11AE	     ppppp = $
1  3265				       dstr2 'OCTAL',0
2  3266	11AE  05		       db    ??00AD-$-1+0
2  3267	11AF  4F 43 54 41 4C	       db    'OCTAL'
2  3268	11B4			     ??00AD  label   byte
1  3269	11B4  11A5r		       dw    qqqqq
1  3270	      =MYCSEG:11AE	     qqqqq = ppppp
   3271	11B6  178Br			   dw  xbase
   3272	11B8  08			   db  8
   3273
   3274				       nf 'BINARY'
1  3275	      =MYCSEG:11B9	     ppppp = $
1  3276				       dstr2 'BINARY',0
2  3277	11B9  06		       db    ??00AE-$-1+0
2  3278	11BA  42 49 4E 41 52 59	       db    'BINARY'
2  3279	11C0			     ??00AE  label   byte
1  3280	11C0  11AEr		       dw    qqqqq
1  3281	      =MYCSEG:11B9	     qqqqq = ppppp
   3282	11C2  178Br			   dw  xbase
   3283	11C4  02			   db  2
   3284				     ; -------------TEXT INTERPRETTER	-------------^^^^^^
   3285
   3286				     ; ------------  COMPILER  --------------------vvvvvvvv
   3287				       NFI 'C"'
1  3288	      =MYCSEG:11C5	     ppppp = $
1  3289				       dstr2 'C"',080h
2  3290	11C5  82		       db    ??00AF-$-1+080h
2  3291	11C6  43 22		       db    'C"'
2  3292	11C8			     ??00AF  label   byte
1  3293	11C8  11B9r		       dw    qqqqq
1  3294	      =MYCSEG:11C5	     qqqqq = ppppp
   3295	11CA  0218r 1068r 0C0Br	  +    DW JSR,TBLWORD,TONEPL,TCAT,LITERAL,TEXIT
   3296	      09E8r 14C6r 08C3r
   3297
   3298				       NF 'LINK+'	     ; : LINK+ HERE TO >< , ;
1  3299	      =MYCSEG:11D6	     ppppp = $
1  3300				       dstr2 'LINK+',0
2  3301	11D6  05		       db    ??00B0-$-1+0
2  3302	11D7  4C 49 4E 4B 2B	       db    'LINK+'
2  3303	11DC			     ??00B0  label   byte
1  3304	11DC  11C5r		       dw    qqqqq
1  3305	      =MYCSEG:11D6	     qqqqq = ppppp
   3306	11DE  0218r 16E7r 09C0r	  +    DW JSR,HERE,T@SWP2,TCOMMA,TEXIT
Turbo Assembler	 Version 3.2	    12/14/19 15:48:34	    Page 59
PT.asm



   3307	      1339r 08C3r
   3308
   3309					NF ',S"'
1  3310	      =MYCSEG:11E8	     ppppp = $
1  3311				       dstr2 ',S"',0
2  3312	11E8  03		       db    ??00B1-$-1+0
2  3313	11E9  2C 53 22		       db    ',S"'
2  3314	11EC			     ??00B1  label   byte
1  3315	11EC  11D6r		       dw    qqqqq
1  3316	      =MYCSEG:11E8	     qqqqq = ppppp
   3317	11EE  0218r 1358r 0022	  +  STRCOMP   DW JSR,TLIT,'"',TWORD,TSTRCOM,TEXIT
   3318	      1077r 1597r 08C3r
   3319
   3320					NFI 'A"'
1  3321	      =MYCSEG:11FA	     ppppp = $
1  3322				       dstr2 'A"',080h
2  3323	11FA  82		       db    ??00B2-$-1+080h
2  3324	11FB  41 22		       db    'A"'
2  3325	11FD			     ??00B2  label   byte
1  3326	11FD  11E8r		       dw    qqqqq
1  3327	      =MYCSEG:11FA	     qqqqq = ppppp
   3328	11FF  1283r 120Dr 11EEr		DW DOIMMD,TSABRT,STRCOMP
   3329
   3330					NF '(ABRT'
1  3331	      =MYCSEG:1205	     ppppp = $
1  3332				       dstr2 '(ABRT',0
2  3333	1205  05		       db    ??00B3-$-1+0
2  3334	1206  28 41 42 52 54	       db    '(ABRT'
2  3335	120B			     ??00B3  label   byte
1  3336	120B  11FAr		       dw    qqqqq
1  3337	      =MYCSEG:1205	     qqqqq = ppppp
   3338	120D  1ACAr		     tSABRT: dw	 jsr_TR
   3339	120F  1A63r 1A50r 08E5r	  +	     dw	 tSKPs,tswap,tZbran,@@3
   3340	      122Br
   3341	1217  0E2Er 16E7r 1BA9r	  +	     DW	 TCR,here,N_ID,BLK@,TOSCR,TOIN@,TOCSP
   3342	      186Br 18C5r 1877r	  +
   3343	      18B9r
   3344	1225  12FAr 0E2Er 10D6r		     DW	 tsDot,TCR,ABORT
   3345	122B  1982r 08F6r	     @@3:    Dw	 tdrop,tex_tr
   3346
   3347					NFI '"'
1  3348	      =MYCSEG:122F	     ppppp = $
1  3349				       dstr2 '"',080h
2  3350	122F  81		       db    ??00B4-$-1+080h
2  3351	1230  22		       db    '"'
2  3352	1231			     ??00B4  label   byte
1  3353	1231  1205r		       dw    qqqqq
1  3354	      =MYCSEG:122F	     qqqqq = ppppp
   3355	1233  1283r 123Er 11EEr		DW DOIMMD,TLITSTR,STRCOMP
   3356
   3357					NF '("'
1  3358	      =MYCSEG:1239	     ppppp = $
1  3359				       dstr2 '("',0
2  3360	1239  02		       db    ??00B5-$-1+0
2  3361	123A  28 22		       db    '("'
2  3362	123C			     ??00B5  label   byte
1  3363	123C  122Fr		       dw    qqqqq
Turbo Assembler	 Version 3.2	    12/14/19 15:48:34	    Page 60
PT.asm



1  3364	      =MYCSEG:1239	     qqqqq = ppppp
   3365	123E  0218r 1A63r 08C3r	     tLITSTR:dw	 jsr,tSKPs,texit
   3366
   3367					NFI '."'
1  3368	      =MYCSEG:1244	     ppppp = $
1  3369				       dstr2 '."',080h
2  3370	1244  82		       db    ??00B6-$-1+080h
2  3371	1245  2E 22		       db    '."'
2  3372	1247			     ??00B6  label   byte
1  3373	1247  1239r		       dw    qqqqq
1  3374	      =MYCSEG:1244	     qqqqq = ppppp
   3375	1249  1283r 1255r 11EEr		DW DOIMMD,T_SDOT,STRCOMP
   3376
   3377					NF '(."'
1  3378	      =MYCSEG:124F	     ppppp = $
1  3379				       dstr2 '(."',0
2  3380	124F  03		       db    ??00B7-$-1+0
2  3381	1250  28 2E 22		       db    '(."'
2  3382	1253			     ??00B7  label   byte
1  3383	1253  1244r		       dw    qqqqq
1  3384	      =MYCSEG:124F	     qqqqq = ppppp
   3385	1255  0218r 1A63r 12FAr	  +  t_SDOT: DW	 JSR,tSKPs,tSDOT,texit
   3386	      08C3r
   3387
   3388				       nf 'STR,'
1  3389	      =MYCSEG:125D	     ppppp = $
1  3390				       dstr2 'STR,',0
2  3391	125D  04		       db    ??00B8-$-1+0
2  3392	125E  53 54 52 2C	       db    'STR,'
2  3393	1262			     ??00B8  label   byte
1  3394	1262  124Fr		       dw    qqqqq
1  3395	      =MYCSEG:125D	     qqqqq = ppppp
   3396	1264  0218r 0901r 126Er	  +  TSTRCOMMA:	 DW JSR,TFOR,@@1,BCOMMA,TNEXT
   3397	      12A0r 090Br
   3398	126E  1982r 08C3r	     @@1:   DW TDROP,TEXIT
   3399
   3400				       NF '(('	   ; : (( CREATE , , IMMEDIATE DOES> STR , AT EXEC ;
1  3401	      =MYCSEG:1272	     ppppp = $
1  3402				       dstr2 '((',0
2  3403	1272  02		       db    ??00B9-$-1+0
2  3404	1273  28 28		       db    '(('
2  3405	1275			     ??00B9  label   byte
1  3406	1275  125Dr		       dw    qqqqq
1  3407	      =MYCSEG:1272	     qqqqq = ppppp
   3408	1277  0218r 15AAr 1339r	  +    DW JSR,ACREATE,TCOMMA,TCOMMA,IMM,TCODESEMI
   3409	      1339r 160Er 150Br
   3410	1283  E8 EFF4		     DOIMMD: CALL _DOES
   3411	1286  0994r 1339r 0F8Er	  +	     DW	TSTR,TCOMMA,TPERF,TEXIT
   3412	      08C3r
   3413
   3414				       NF 'W,'
1  3415	      =MYCSEG:128E	     ppppp = $
1  3416				       dstr2 'W,',0
2  3417	128E  02		       db    ??00BA-$-1+0
2  3418	128F  57 2C		       db    'W,'
2  3419	1291			     ??00BA  label   byte
1  3420	1291  1272r		       dw    qqqqq
Turbo Assembler	 Version 3.2	    12/14/19 15:48:34	    Page 61
PT.asm



1  3421	      =MYCSEG:128E	     qqqqq = ppppp
   3422	1293  0218r 0994r 1339r	  +  WCOMMA  DW	JSR,TWCOUNT,TCOMMA,TEXIT
   3423	      08C3r
   3424
   3425				       NF 'B,'
1  3426	      =MYCSEG:129B	     ppppp = $
1  3427				       dstr2 'B,',0
2  3428	129B  02		       db    ??00BB-$-1+0
2  3429	129C  42 2C		       db    'B,'
2  3430	129E			     ??00BB  label   byte
1  3431	129E  128Er		       dw    qqqqq
1  3432	      =MYCSEG:129B	     qqqqq = ppppp
   3433	12A0  0218r 0983r 1348r	  +  BCOMMA  DW	JSR,TCOUNT,TCOMMAB,TEXIT
   3434	      08C3r
   3435
   3436					NF '+JUMP'
1  3437	      =MYCSEG:12A8	     ppppp = $
1  3438				       dstr2 '+JUMP',0
2  3439	12A8  05		       db    ??00BC-$-1+0
2  3440	12A9  2B 4A 55 4D 50	       db    '+JUMP'
2  3441	12AE			     ??00BC  label   byte
1  3442	12AE  129Br		       dw    qqqqq
1  3443	      =MYCSEG:12A8	     qqqqq = ppppp
   3444	12B0  0218r 1948r 0BE2r	  +  PJUMP:  DW	JSR,TRFR,TPLUS,TTOR,TEXIT
   3445	      1951r 08C3r
   3446
   3447				       NF 'MAKER'
1  3448	      =MYCSEG:12BA	     ppppp = $
1  3449				       dstr2 'MAKER',0
2  3450	12BA  05		       db    ??00BD-$-1+0
2  3451	12BB  4D 41 4B 45 52	       db    'MAKER'
2  3452	12C0			     ??00BD  label   byte
1  3453	12C0  12A8r		       dw    qqqqq
1  3454	      =MYCSEG:12BA	     qqqqq = ppppp
   3455	12C2  0218r 15AAr 0BB9r	  +	DW JSR,ACREATE,TNOT,TLIT,3,TAND,T2STAR,TDUP,TCOMMAB,PJUMP
   3456	      1358r 0003 0BA9r	  +
   3457	      0B8Er 199Er 1348r	  +
   3458	      12B0r
   3459	12D6  1339r 1339r 1339r	  +	DW TCOMMA,TCOMMA,TCOMMA,APOS,TCOMMA,TCODESEMI
   3460	      0FF5r 1339r 150Br
   3461	12E2  E8 EF95		     TMAKER:  CALL _DOES
   3462	12E5  0983r 16F8r 12B0r	  +	DW TCOUNT,AHEADER,PJUMP,WCOMMA,WCOMMA,WCOMMA,TPERF,TEXIT
   3463	      1293r 1293r 1293r	  +
   3464	      0F8Er 08C3r
   3465
   3466				      nf '".'
1  3467	      =MYCSEG:12F5	     ppppp = $
1  3468				       dstr2 '".',0
2  3469	12F5  02		       db    ??00BE-$-1+0
2  3470	12F6  22 2E		       db    '".'
2  3471	12F8			     ??00BE  label   byte
1  3472	12F8  12BAr		       dw    qqqqq
1  3473	      =MYCSEG:12F5	     qqqqq = ppppp
   3474	12FA  0218r 0983r 0CE9r	  +  tSDOT:  DW	 JSR,tCouNT,tTYPE,texit
   3475	      08C3r
   3476
   3477				       NF 'ALIAS'
Turbo Assembler	 Version 3.2	    12/14/19 15:48:34	    Page 62
PT.asm



1  3478	      =MYCSEG:1302	     ppppp = $
1  3479				       dstr2 'ALIAS',0
2  3480	1302  05		       db    ??00BF-$-1+0
2  3481	1303  41 4C 49 41 53	       db    'ALIAS'
2  3482	1308			     ??00BF  label   byte
1  3483	1308  12F5r		       dw    qqqqq
1  3484	      =MYCSEG:1302	     qqqqq = ppppp
   3485	130A  0218r 1724r 13EEr	  +  TBIND:  DW	JSR,AHEAD4,TCOMP,XNONAME,tcomma,TEXIT
   3486	      054Er 1339r 08C3r
   3487
   3488				       NF 'X?COMP'
1  3489	      =MYCSEG:1316	     ppppp = $
1  3490				       dstr2 'X?COMP',0
2  3491	1316  06		       db    ??00C0-$-1+0
2  3492	1317  58 3F 43 4F 4D 50	       db    'X?COMP'
2  3493	131D			     ??00C0  label   byte
1  3494	131D  1302r		       dw    qqqqq
1  3495	      =MYCSEG:1316	     qqqqq = ppppp
   3496	131F  0218r 150Br	       DW  JSR,TCODESEMI
   3497	1323  E8 EF54		     x?comp: call _DOES
   3498	1326  09E8r 0F76r 1951r	  +	     dw	  tcat,apos0,TTOR,tPlus,TRFR,tretf
   3499	      0BE2r 1948r 08CCr
   3500	1332  E9 F20C			     JMP  XQCOMM
   3501
   3502				     ;	NF ',A'
   3503				     ; TACOMMA:	DW   XACOMMA	; ,
   3504
   3505				      NF ','
1  3506	      =MYCSEG:1335	     ppppp = $
1  3507				       dstr2 ',',0
2  3508	1335  01		       db    ??00C1-$-1+0
2  3509	1336  2C		       db    ','
2  3510	1337			     ??00C1  label   byte
1  3511	1337  1316r		       dw    qqqqq
1  3512	      =MYCSEG:1335	     qqqqq = ppppp
   3513	1339  0218r 16E7r 0B09r	  +  tcomma:  DW JSR,HERE,TADRSP2,TOHERE,TEXIT
   3514	      16E9r 08C3r
   3515
   3516				      NF 'C,'
1  3517	      =MYCSEG:1343	     ppppp = $
1  3518				       dstr2 'C,',0
2  3519	1343  02		       db    ??00C2-$-1+0
2  3520	1344  43 2C		       db    'C,'
2  3521	1346			     ??00C2  label   byte
1  3522	1346  1335r		       dw    qqqqq
1  3523	      =MYCSEG:1343	     qqqqq = ppppp
   3524	1348  0218r 16E7r 0B02r	  +  tcommab: DW JSR,HERE,TADRSP1,TOHERE,TEXIT
   3525	      16E9r 08C3r
   3526
   3527				      NF 'lit'
1  3528	      =MYCSEG:1352	     ppppp = $
1  3529				       dstr2 'lit',0
2  3530	1352  03		       db    ??00C3-$-1+0
2  3531	1353  6C 69 74		       db    'lit'
2  3532	1356			     ??00C3  label   byte
1  3533	1356  1343r		       dw    qqqqq
1  3534	      =MYCSEG:1352	     qqqqq = ppppp
Turbo Assembler	 Version 3.2	    12/14/19 15:48:34	    Page 63
PT.asm



   3535	1358  051Dr		     tlit:   DW	  XLIT	     ; LIT
   3536
   3537				      NF 'blit'
1  3538	      =MYCSEG:135A	     ppppp = $
1  3539				       dstr2 'blit',0
2  3540	135A  04		       db    ??00C4-$-1+0
2  3541	135B  62 6C 69 74	       db    'blit'
2  3542	135F			     ??00C4  label   byte
1  3543	135F  1352r		       dw    qqqqq
1  3544	      =MYCSEG:135A	     qqqqq = ppppp
   3545	1361  0519r		     tblit:   DW   XBLIT      ;	BLIT
   3546
   3547				      NF 'Z,'
1  3548	      =MYCSEG:1363	     ppppp = $
1  3549				       dstr2 'Z,',0
2  3550	1363  02		       db    ??00C5-$-1+0
2  3551	1364  5A 2C		       db    'Z,'
2  3552	1366			     ??00C5  label   byte
1  3553	1366  135Ar		       dw    qqqqq
1  3554	      =MYCSEG:1363	     qqqqq = ppppp
   3555	1368  0218r 1924r 1339r	  +  ZCOMMA   DW JSR,ZR,tcomMA,TEXIT
   3556	      08C3r
   3557
   3558				      NF 'ZC,'
1  3559	      =MYCSEG:1370	     ppppp = $
1  3560				       dstr2 'ZC,',0
2  3561	1370  03		       db    ??00C6-$-1+0
2  3562	1371  5A 43 2C		       db    'ZC,'
2  3563	1374			     ??00C6  label   byte
1  3564	1374  1363r		       dw    qqqqq
1  3565	      =MYCSEG:1370	     qqqqq = ppppp
   3566	1376  0218r 1924r 1348r	  +  ZCOMMAB   DW JSR,ZR,tcomMAB,TEXIT
   3567	      08C3r
   3568
   3569				      NF '>MARK'
1  3570	      =MYCSEG:137E	     ppppp = $
1  3571				       dstr2 '>MARK',0
2  3572	137E  05		       db    ??00C7-$-1+0
2  3573	137F  3E 4D 41 52 4B	       db    '>MARK'
2  3574	1384			     ??00C7  label   byte
1  3575	1384  1370r		       dw    qqqqq
1  3576	      =MYCSEG:137E	     qqqqq = ppppp
   3577	1386  0218r 16E7r 1368r	  +  TMARK    DW JSR,HERE,ZCOMMA,TEXIT
   3578	      08C3r
   3579
   3580				       NF ''','
1  3581	      =MYCSEG:138E	     ppppp = $
1  3582				       dstr2 ''',',0
2  3583	138E  02		       db    ??00C8-$-1+0
2  3584	138F  27 2C		       db    ''','
2  3585	1391			     ??00C8  label   byte
1  3586	1391  137Er		       dw    qqqqq
1  3587	      =MYCSEG:138E	     qqqqq = ppppp
   3588	1393  0218r 0FF5r 1339r	  +  APOSADRC  DW JSR,APOS,TCOMMA,TEXIT
   3589	      08C3r
   3590
   3591				       NFI '['']'   ; :	['] ' ?C TO , AT , , ; IMMEDIATE
Turbo Assembler	 Version 3.2	    12/14/19 15:48:34	    Page 64
PT.asm



1  3592	      =MYCSEG:139B	     ppppp = $
1  3593				       dstr2 '['']',080h
2  3594	139B  83		       db    ??00C9-$-1+080h
2  3595	139C  5B 27 5D		       db    '['']'
2  3596	139F			     ??00C9  label   byte
1  3597	139F  138Er		       dw    qqqqq
1  3598	      =MYCSEG:139B	     qqqqq = ppppp
   3599	13A1  1283r 1358r 1393r		DW DOIMMD,TLIT,APOSADRC
   3600
   3601				      NFI 'THEN'
1  3602	      =MYCSEG:13A7	     ppppp = $
1  3603				       dstr2 'THEN',080h
2  3604	13A7  84		       db    ??00CA-$-1+080h
2  3605	13A8  54 48 45 4E	       db    'THEN'
2  3606	13AC			     ??00CA  label   byte
1  3607	13AC  139Br		       dw    qqqqq
1  3608	      =MYCSEG:13A7	     qqqqq = ppppp
   3609	13AE  0218r 16E7r 0AEBr	  +  THEN DW JSR,HERE,tswapsto,TEXIT ;
   3610	      08C3r
   3611
   3612				       NFI ';THEN'
1  3613	      =MYCSEG:13B6	     ppppp = $
1  3614				       dstr2 ';THEN',080h
2  3615	13B6  85		       db    ??00CB-$-1+080h
2  3616	13B7  3B 54 48 45 4E	       db    ';THEN'
2  3617	13BC			     ??00CB  label   byte
1  3618	13BC  13A7r		       dw    qqqqq
1  3619	      =MYCSEG:13B6	     qqqqq = ppppp
   3620	13BE  1283r 08C3r 13AEr		  DW DOIMMD,TEXIT,THEN
   3621
   3622				      NF 'LOOP/'
1  3623	      =MYCSEG:13C4	     ppppp = $
1  3624				       dstr2 'LOOP/',0
2  3625	13C4  05		       db    ??00CC-$-1+0
2  3626	13C5  4C 4F 4F 50 2F	       db    'LOOP/'
2  3627	13CA			     ??00CC  label   byte
1  3628	13CA  13B6r		       dw    qqqqq
1  3629	      =MYCSEG:13C4	     qqqqq = ppppp
   3630	13CC  0218r 1386r 16E7r	  +  LPBEG DW JSR,TMARK,HERE,TEXIT
   3631	      08C3r
   3632
   3633				      NF '/LOOP'
1  3634	      =MYCSEG:13D4	     ppppp = $
1  3635				       dstr2 '/LOOP',0
2  3636	13D4  05		       db    ??00CD-$-1+0
2  3637	13D5  2F 4C 4F 4F 50	       db    '/LOOP'
2  3638	13DA			     ??00CD  label   byte
1  3639	13DA  13C4r		       dw    qqqqq
1  3640	      =MYCSEG:13D4	     qqqqq = ppppp
   3641	13DC  0218r 1339r 13AEr	  +  LPEND DW JSR,TCOMMA,THEN,TEXIT
   3642	      08C3r
   3643
   3644				     ; NFI '?DO'
   3645				     ; DW DOIMMD,T?DO,LPBEG
   3646				     ;
   3647				     ; NFI 'LOOP'
   3648				     ; DW DOIMMD,TLOOP,LPEND
Turbo Assembler	 Version 3.2	    12/14/19 15:48:34	    Page 65
PT.asm



   3649				     ;
   3650				     ; NFI 'DO'
   3651				     ; DW DOIMMD,TDO,LPBEG
   3652				     ;
   3653				     ; NFI '+LOOP'
   3654				     ; DW DOIMMD,TPLOOP,LPEND
   3655				     ;
   3656				     ; NF 'COMPILE,'	  ;
   3657				     ; TACOMP DW JSR,TRATPW,TCOMMA,TEXIT
   3658
   3659				      NF 'COMPILE'	;
1  3660	      =MYCSEG:13E4	     ppppp = $
1  3661				       dstr2 'COMPILE',0
2  3662	13E4  07		       db    ??00CE-$-1+0
2  3663	13E5  43 4F 4D 50 49 4C	45     db    'COMPILE'
2  3664	13EC			     ??00CE  label   byte
1  3665	13EC  13D4r		       dw    qqqqq
1  3666	      =MYCSEG:13E4	     qqqqq = ppppp
   3667	13EE  0218r 1959r 1339r	  +  TCOMP DW JSR,TRATPW,TCOMMA,TEXIT
   3668	      08C3r
   3669
   3670				       NFI 'AHEAD'
1  3671	      =MYCSEG:13F6	     ppppp = $
1  3672				       dstr2 'AHEAD',080h
2  3673	13F6  85		       db    ??00CF-$-1+080h
2  3674	13F7  41 48 45 41 44	       db    'AHEAD'
2  3675	13FC			     ??00CF  label   byte
1  3676	13FC  13E4r		       dw    qqqqq
1  3677	      =MYCSEG:13F6	     qqqqq = ppppp
   3678	13FE  1283r 08DCr 1386r	     TAHEAD  DW	DOIMMD,TBRAN,TMARK
   3679
   3680				       NFI 'IF'
1  3681	      =MYCSEG:1404	     ppppp = $
1  3682				       dstr2 'IF',080h
2  3683	1404  82		       db    ??00D0-$-1+080h
2  3684	1405  49 46		       db    'IF'
2  3685	1407			     ??00D0  label   byte
1  3686	1407  13F6r		       dw    qqqqq
1  3687	      =MYCSEG:1404	     qqqqq = ppppp
   3688	1409  1283r 08E5r 1386r	     TIF  DW DOIMMD,TZBRAN,TMARK
   3689
   3690				       NFI 'FOR'
1  3691	      =MYCSEG:140F	     ppppp = $
1  3692				       dstr2 'FOR',080h
2  3693	140F  83		       db    ??00D1-$-1+080h
2  3694	1410  46 4F 52		       db    'FOR'
2  3695	1413			     ??00D1  label   byte
1  3696	1413  1404r		       dw    qqqqq
1  3697	      =MYCSEG:140F	     qqqqq = ppppp
   3698	1415  1283r 0901r 1386r	       DW DOIMMD,TFOR,TMARK
   3699
   3700				       NFI 'OF'
1  3701	      =MYCSEG:141B	     ppppp = $
1  3702				       dstr2 'OF',080h
2  3703	141B  82		       db    ??00D2-$-1+080h
2  3704	141C  4F 46		       db    'OF'
2  3705	141E			     ??00D2  label   byte
Turbo Assembler	 Version 3.2	    12/14/19 15:48:34	    Page 66
PT.asm



1  3706	141E  140Fr		       dw    qqqqq
1  3707	      =MYCSEG:141B	     qqqqq = ppppp
   3708	1420  1283r 08EDr 1386r	       DW DOIMMD,TOF,TMARK
   3709
   3710				       NFI 'NEXT'
1  3711	      =MYCSEG:1426	     ppppp = $
1  3712				       dstr2 'NEXT',080h
2  3713	1426  84		       db    ??00D3-$-1+080h
2  3714	1427  4E 45 58 54	       db    'NEXT'
2  3715	142B			     ??00D3  label   byte
1  3716	142B  141Br		       dw    qqqqq
1  3717	      =MYCSEG:1426	     qqqqq = ppppp
   3718	142D  1283r 090Br 13AEr	       DW DOIMMD,TNEXT,THEN
   3719
   3720				       NFI 'BEGIN'
1  3721	      =MYCSEG:1433	     ppppp = $
1  3722				       dstr2 'BEGIN',080h
2  3723	1433  85		       db    ??00D4-$-1+080h
2  3724	1434  42 45 47 49 4E	       db    'BEGIN'
2  3725	1439			     ??00D4  label   byte
1  3726	1439  1426r		       dw    qqqqq
1  3727	      =MYCSEG:1433	     qqqqq = ppppp
   3728	143B  054Er 16E7r	     TBEGIN DW XNONAME,HERE
   3729
   3730				       NFI 'WHILE'
1  3731	      =MYCSEG:143F	     ppppp = $
1  3732				       dstr2 'WHILE',080h
2  3733	143F  85		       db    ??00D5-$-1+080h
2  3734	1440  57 48 49 4C 45	       db    'WHILE'
2  3735	1445			     ??00D5  label   byte
1  3736	1445  1433r		       dw    qqqqq
1  3737	      =MYCSEG:143F	     qqqqq = ppppp
   3738	1447  054Er 1409r	      DW XNONAME,TIF
   3739
   3740				       NFI 'AGAIN'
1  3741	      =MYCSEG:144B	     ppppp = $
1  3742				       dstr2 'AGAIN',080h
2  3743	144B  85		       db    ??00D6-$-1+080h
2  3744	144C  41 47 41 49 4E	       db    'AGAIN'
2  3745	1451			     ??00D6  label   byte
1  3746	1451  143Fr		       dw    qqqqq
1  3747	      =MYCSEG:144B	     qqqqq = ppppp
   3748	1453  1283r 08DCr 1339r	     TAGAIN  DW	DOIMMD,TBRAN,TCOMMA
   3749
   3750				       NFI 'UNTIL'
1  3751	      =MYCSEG:1459	     ppppp = $
1  3752				       dstr2 'UNTIL',080h
2  3753	1459  85		       db    ??00D7-$-1+080h
2  3754	145A  55 4E 54 49 4C	       db    'UNTIL'
2  3755	145F			     ??00D7  label   byte
1  3756	145F  144Br		       dw    qqqqq
1  3757	      =MYCSEG:1459	     qqqqq = ppppp
   3758	1461  1283r 08E5r 1339r	       DW DOIMMD,TZBRAN,TCOMMA
   3759
   3760				       NFI ''','
1  3761	      =MYCSEG:1467	     ppppp = $
1  3762				       dstr2 ''',',080h
Turbo Assembler	 Version 3.2	    12/14/19 15:48:34	    Page 67
PT.asm



2  3763	1467  82		       db    ??00D8-$-1+080h
2  3764	1468  27 2C		       db    ''','
2  3765	146A			     ??00D8  label   byte
1  3766	146A  1459r		       dw    qqqqq
1  3767	      =MYCSEG:1467	     qqqqq = ppppp
   3768	146C  0218r 0FF5r 1339r	  +    DW JSR,APOS,TCOMMA,TEXIT
   3769	      08C3r
   3770
   3771				       NFI 'REPEAT'
1  3772	      =MYCSEG:1474	     ppppp = $
1  3773				       dstr2 'REPEAT',080h
2  3774	1474  86		       db    ??00D9-$-1+080h
2  3775	1475  52 45 50 45 41 54	       db    'REPEAT'
2  3776	147B			     ??00D9  label   byte
1  3777	147B  1467r		       dw    qqqqq
1  3778	      =MYCSEG:1474	     qqqqq = ppppp
   3779	147D  0218r 1A50r 1453r	  +    DW JSR,TSWAP,TAGAIN,THEN,TEXIT
   3780	      13AEr 08C3r
   3781
   3782				       NFI 'ELSE'
1  3783	      =MYCSEG:1487	     ppppp = $
1  3784				       dstr2 'ELSE',080h
2  3785	1487  84		       db    ??00DA-$-1+080h
2  3786	1488  45 4C 53 45	       db    'ELSE'
2  3787	148C			     ??00DA  label   byte
1  3788	148C  1474r		       dw    qqqqq
1  3789	      =MYCSEG:1487	     qqqqq = ppppp
   3790	148E  0218r 13FEr 1A50r	  +    DW JSR,TAHEAD,TSWAP,THEN,TEXIT
   3791	      13AEr 08C3r
   3792
   3793				     ;	NF 'BCOMPILE'	   ;
   3794				     ; TCOMPB DW JSR,TPOP,BCOMMA,TPUSH,TEXIT
   3795
   3796				      NF 'ALLOT'      ;	ALLOT
1  3797	      =MYCSEG:1498	     ppppp = $
1  3798				       dstr2 'ALLOT',0
2  3799	1498  05		       db    ??00DB-$-1+0
2  3800	1499  41 4C 4C 4F 54	       db    'ALLOT'
2  3801	149E			     ??00DB  label   byte
1  3802	149E  1487r		       dw    qqqqq
1  3803	      =MYCSEG:1498	     qqqqq = ppppp
   3804	14A0  0218r 16EBr 0A65r	  +  tallot: DW	JSR,ATHERE,TPSTORE,TEXIT
   3805	      08C3r
   3806
   3807				      NF 'RECOVER'
1  3808	      =MYCSEG:14A8	     ppppp = $
1  3809				       dstr2 'RECOVER',0
2  3810	14A8  07		       db    ??00DC-$-1+0
2  3811	14A9  52 45 43 4F 56 45	52     db    'RECOVER'
2  3812	14B0			     ??00DC  label   byte
1  3813	14B0  1498r		       dw    qqqqq
1  3814	      =MYCSEG:14A8	     qqqqq = ppppp
   3815	14B2  0218r 192Ar 0B14r	  +   DW JSR,TWO,TNEGATE,TALLOT,TEXIT
   3816	      14A0r 08C3r
   3817
   3818				       nfI    'LITERAL'
1  3819	      =MYCSEG:14BC	     ppppp = $
Turbo Assembler	 Version 3.2	    12/14/19 15:48:34	    Page 68
PT.asm



1  3820				       dstr2 'LITERAL',080h
2  3821	14BC  87		       db    ??00DD-$-1+080h
2  3822	14BD  4C 49 54 45 52 41	4C     db    'LITERAL'
2  3823	14C4			     ??00DD  label   byte
1  3824	14C4  14A8r		       dw    qqqqq
1  3825	      =MYCSEG:14BC	     qqqqq = ppppp
   3826	14C6  0218r 1885r 08BAr	  +  literal dw	jsr,stat@,EXIT0,DOlit,texit;
   3827	      15F0r 08C3r
   3828
   3829				       NF '?LITERAL'
1  3830	      =MYCSEG:14D0	     ppppp = $
1  3831				       dstr2 '?LITERAL',0
2  3832	14D0  08		       db    ??00DE-$-1+0
2  3833	14D1  3F 4C 49 54 45 52	41+    db    '?LITERAL'
   3834	      4C
2  3835	14D9			     ??00DE  label   byte
1  3836	14D9  14BCr		       dw    qqqqq
1  3837	      =MYCSEG:14D0	     qqqqq = ppppp
   3838	14DB  052Er 0660r 14E9r	     TZLIT DW  ExecAt1,SETVAR,TZLIT2
   3839
   3840				       NF '(?LIT'
1  3841	      =MYCSEG:14E1	     ppppp = $
1  3842				       dstr2 '(?LIT',0
2  3843	14E1  05		       db    ??00DF-$-1+0
2  3844	14E2  28 3F 4C 49 54	       db    '(?LIT'
2  3845	14E7			     ??00DF  label   byte
1  3846	14E7  14D0r		       dw    qqqqq
1  3847	      =MYCSEG:14E1	     qqqqq = ppppp
   3848	14E9  0218r 189Er 0C0Br	  +  TZLIT2:dw JSR,dbl@,TONEPL,tZbran,@@1
   3849	      08E5r 14FDr
   3850	14F3  1885r 08BAr 1A50r	  +	  dw STAT@,EXIT0,TSWAP,literal,TDUP
   3851	      14C6r 199Er
   3852	14FD  1982r 14C6r 08C3r	     @@1: DW TDROP,LITERAL,texIt
   3853
   3854				       nf ';code'
1  3855	      =MYCSEG:1503	     ppppp = $
1  3856				       dstr2 ';code',0
2  3857	1503  05		       db    ??00E0-$-1+0
2  3858	1504  3B 63 6F 64 65	       db    ';code'
2  3859	1509			     ??00E0  label   byte
1  3860	1509  14E1r		       dw    qqqqq
1  3861	      =MYCSEG:1503	     qqqqq = ppppp
   3862	150B  0218r 1948r 16B4r	  +  tCODESEMI dw jsr,tRFR,CFA,TSTORE1,texit
   3863	      09C6r 08C3r
   3864
   3865				       nf 'REL,'
1  3866	      =MYCSEG:1515	     ppppp = $
1  3867				       dstr2 'REL,',0
2  3868	1515  04		       db    ??00E1-$-1+0
2  3869	1516  52 45 4C 2C	       db    'REL,'
2  3870	151A			     ??00E1  label   byte
1  3871	151A  1503r		       dw    qqqqq
1  3872	      =MYCSEG:1515	     qqqqq = ppppp
   3873	151C  0218r 150Br	       DW  JSR,TCODESEMI
   3874	1520  E8 ED57		     RCOMMA: CALL _DOES
   3875	1523  09E8r 1348r 16E7r	  +    DW TCAT,TCOMMAB,HERE,TTWOPL,TSUBT,TCOMMA,TEXIT
   3876	      0C12r 0BEFr 1339r	  +
Turbo Assembler	 Version 3.2	    12/14/19 15:48:34	    Page 69
PT.asm



   3877	      08C3r
   3878
   3879				       nf 'RJUMP,'
1  3880	      =MYCSEG:1531	     ppppp = $
1  3881				       dstr2 'RJUMP,',0
2  3882	1531  06		       db    ??00E2-$-1+0
2  3883	1532  52 4A 55 4D 50 2C	       db    'RJUMP,'
2  3884	1538			     ??00E2  label   byte
1  3885	1538  1515r		       dw    qqqqq
1  3886	      =MYCSEG:1531	     qqqqq = ppppp
   3887	153A  1520r		     TJUMP DW RCOMMA
   3888	153C  E9		       DB 0E9H
   3889
   3890				       nf 'RCALL,'
1  3891	      =MYCSEG:153D	     ppppp = $
1  3892				       dstr2 'RCALL,',0
2  3893	153D  06		       db    ??00E3-$-1+0
2  3894	153E  52 43 41 4C 4C 2C	       db    'RCALL,'
2  3895	1544			     ??00E3  label   byte
1  3896	1544  1531r		       dw    qqqqq
1  3897	      =MYCSEG:153D	     qqqqq = ppppp
   3898	1546  1520r		     TCALL DW RCOMMA
   3899	1548  E8		       DB 0E8H
   3900
   3901				       NF '?CODE'
1  3902	      =MYCSEG:1549	     ppppp = $
1  3903				       dstr2 '?CODE',0
2  3904	1549  05		       db    ??00E4-$-1+0
2  3905	154A  3F 43 4F 44 45	       db    '?CODE'
2  3906	154F			     ??00E4  label   byte
1  3907	154F  153Dr		       dw    qqqqq
1  3908	      =MYCSEG:1549	     qqqqq = ppppp
   3909	1551  0218r 16E7r 1A50r	  +  CODE? DW JSR,HERE,TSWAP,TCALL,SKOBAR,TEXIT
   3910	      1546r 17AEr 08C3r
   3911
   3912				       NF 'M:'
1  3913	      =MYCSEG:155D	     ppppp = $
1  3914				       dstr2 'M:',0
2  3915	155D  02		       db    ??00E5-$-1+0
2  3916	155E  4D 3A		       db    'M:'
2  3917	1560			     ??00E5  label   byte
1  3918	1560  1549r		       dw    qqqqq
1  3919	      =MYCSEG:155D	     qqqqq = ppppp
   3920	1562  0218r 1358r 0319r	  +    DW JSR,TLIT,SUB4TH,CODE?,TEXIT
   3921	      1551r 08C3r
   3922
   3923				       NF 'NM:'
1  3924	      =MYCSEG:156C	     ppppp = $
1  3925				       dstr2 'NM:',0
2  3926	156C  03		       db    ??00E6-$-1+0
2  3927	156D  4E 4D 3A		       db    'NM:'
2  3928	1570			     ??00E6  label   byte
1  3929	1570  155Dr		       dw    qqqqq
1  3930	      =MYCSEG:156C	     qqqqq = ppppp
   3931	1572  0218r 0B14r 193Er	  +    DW JSR,TNEGATE,CDOES,TPLUS,CODE?,TEXIT
   3932	      0BE2r 1551r 08C3r
   3933
Turbo Assembler	 Version 3.2	    12/14/19 15:48:34	    Page 70
PT.asm



   3934				       NFI 'DOES>'
1  3935	      =MYCSEG:157E	     ppppp = $
1  3936				       dstr2 'DOES>',080h
2  3937	157E  85		       db    ??00E7-$-1+080h
2  3938	157F  44 4F 45 53 3E	       db    'DOES>'
2  3939	1584			     ??00E7  label   byte
1  3940	1584  156Cr		       dw    qqqqq
1  3941	      =MYCSEG:157E	     qqqqq = ppppp
   3942	1586  0218r 13EEr 150Br	  +    DW JSR,TCOMP,TCODESEMI,CDOES,TCALL,TEXIT
   3943	      193Er 1546r 08C3r
   3944
   3945				       nf  '",'
1  3946	      =MYCSEG:1592	     ppppp = $
1  3947				       dstr2 '",',0
2  3948	1592  02		       db    ??00E8-$-1+0
2  3949	1593  22 2C		       db    '",'
2  3950	1595			     ??00E8  label   byte
1  3951	1595  157Er		       dw    qqqqq
1  3952	      =MYCSEG:1592	     qqqqq = ppppp
   3953	1597  0218r 09E8r 0C0Br	  +  tstrcom dw	  jsr,tcat,tonepl,Tallot,texit
   3954	      14A0r 08C3r
   3955
   3956				       NF 'CREATE'
1  3957	      =MYCSEG:15A1	     ppppp = $
1  3958				       dstr2 'CREATE',0
2  3959	15A1  06		       db    ??00E9-$-1+0
2  3960	15A2  43 52 45 41 54 45	       db    'CREATE'
2  3961	15A8			     ??00E9  label   byte
1  3962	15A8  1592r		       dw    qqqqq
1  3963	      =MYCSEG:15A1	     qqqqq = ppppp
   3964	15AA  0218r 16F8r 13EEr	  +  ACREATE:dw	  JSR,AHEADER,tCOMP,DoVar,TEXIT
   3965	      0272r 08C3r
   3966
   3967				       NF 'USE:'
1  3968	      =MYCSEG:15B4	     ppppp = $
1  3969				       dstr2 'USE:',0
2  3970	15B4  04		       db    ??00EA-$-1+0
2  3971	15B5  55 53 45 3A	       db    'USE:'
2  3972	15B9			     ??00EA  label   byte
1  3973	15B9  15A1r		       dw    qqqqq
1  3974	      =MYCSEG:15B4	     qqqqq = ppppp
   3975	15BB  0218r 16E7r 15D7r	  +    DW JSR,HERE,DOCOLON,TEXIT
   3976	      08C3r
   3977
   3978				       nf ':'
1  3979	      =MYCSEG:15C3	     ppppp = $
1  3980				       dstr2 ':',0
2  3981	15C3  01		       db    ??00EB-$-1+0
2  3982	15C4  3A		       db    ':'
2  3983	15C5			     ??00EB  label   byte
1  3984	15C5  15B4r		       dw    qqqqq
1  3985	      =MYCSEG:15C3	     qqqqq = ppppp
   3986	15C7  0218r 16F8r 161Br	  +  colon  dw jsr,AHEADER,asmudge,DOCOLON,TEXIT
   3987	      15D7r 08C3r
   3988
   3989				       NFI 'DO:'
1  3990	      =MYCSEG:15D1	     ppppp = $
Turbo Assembler	 Version 3.2	    12/14/19 15:48:34	    Page 71
PT.asm



1  3991				       dstr2 'DO:',080h
2  3992	15D1  83		       db    ??00EC-$-1+080h
2  3993	15D2  44 4F 3A		       db    'DO:'
2  3994	15D5			     ??00EC  label   byte
1  3995	15D5  15C3r		       dw    qqqqq
1  3996	      =MYCSEG:15D1	     qqqqq = ppppp
   3997	15D7  1283r 0218r 17AEr	     DOCOLON DW	DOIMMD,JSR,SKOBAR
   3998
   3999				       NFI ';M'
1  4000	      =MYCSEG:15DD	     ppppp = $
1  4001				       dstr2 ';M',080h
2  4002	15DD  82		       db    ??00ED-$-1+080h
2  4003	15DE  3B 4D		       db    ';M'
2  4004	15E0			     ??00ED  label   byte
1  4005	15E0  15D1r		       dw    qqqqq
1  4006	      =MYCSEG:15DD	     qqqqq = ppppp
   4007	15E2  1283r 08C3r 17B5r	     DOSEMI DW DOIMMD,TEXIT,SKOBAL
   4008
   4009				       NFI '[LIT]'
1  4010	      =MYCSEG:15E8	     ppppp = $
1  4011				       dstr2 '[LIT]',080h
2  4012	15E8  85		       db    ??00EE-$-1+080h
2  4013	15E9  5B 4C 49 54 5D	       db    '[LIT]'
2  4014	15EE			     ??00EE  label   byte
1  4015	15EE  15DDr		       dw    qqqqq
1  4016	      =MYCSEG:15E8	     qqqqq = ppppp
   4017	15F0  1283r 1358r 1339r	     DOLIT:  DW	 DOIMMD,TLIT,TCOMMA
   4018
   4019				       nfi ';'
1  4020	      =MYCSEG:15F6	     ppppp = $
1  4021				       dstr2 ';',080h
2  4022	15F6  81		       db    ??00EF-$-1+080h
2  4023	15F7  3B		       db    ';'
2  4024	15F8			     ??00EF  label   byte
1  4025	15F8  15E8r		       dw    qqqqq
1  4026	      =MYCSEG:15F6	     qqqqq = ppppp
   4027	15FA  0218r 161Br 15E2r	  +  semi   dw jsr,asmudge,DOSEMI,texit
   4028	      08C3r
   4029
   4030				       nf  'IMMEDIATE'
1  4031	      =MYCSEG:1602	     ppppp = $
1  4032				       dstr2 'IMMEDIATE',0
2  4033	1602  09		       db    ??00F0-$-1+0
2  4034	1603  49 4D 4D 45 44 49	41+    db    'IMMEDIATE'
   4035	      54 45
2  4036	160C			     ??00F0  label   byte
1  4037	160C  15F6r		       dw    qqqqq
1  4038	      =MYCSEG:1602	     qqqqq = ppppp
   4039	160E  163Ar		     IMM:  dw xsmg
   4040	1610  80 00		       DB 128,0
   4041
   4042				       nf 'SMUDGE'
1  4043	      =MYCSEG:1612	     ppppp = $
1  4044				       dstr2 'SMUDGE',0
2  4045	1612  06		       db    ??00F1-$-1+0
2  4046	1613  53 4D 55 44 47 45	       db    'SMUDGE'
2  4047	1619			     ??00F1  label   byte
Turbo Assembler	 Version 3.2	    12/14/19 15:48:34	    Page 72
PT.asm



1  4048	1619  1602r		       dw    qqqqq
1  4049	      =MYCSEG:1612	     qqqqq = ppppp
   4050	161B  163Ar		     asmudge dw	xsmg ; AT IMMEDIATE = smudge
   4051	161D  20			db 32
   4052
   4053				       NF 'LATEST'
1  4054	      =MYCSEG:161E	     ppppp = $
1  4055				       dstr2 'LATEST',0
2  4056	161E  06		       db    ??00F2-$-1+0
2  4057	161F  4C 41 54 45 53 54	       db    'LATEST'
2  4058	1625			     ??00F2  label   byte
1  4059	1625  1612r		       dw    qqqqq
1  4060	      =MYCSEG:161E	     qqqqq = ppppp
   4061	1627  0218r 1843r 09D3r	  +  LATEST  dw	  JSR,CURR@,TFETCH,texit
   4062	      08C3r
   4063
   4064				       NF 'XSMG'
1  4065	      =MYCSEG:162F	     ppppp = $
1  4066				       dstr2 'XSMG',0
2  4067	162F  04		       db    ??00F3-$-1+0
2  4068	1630  58 53 4D 47	       db    'XSMG'
2  4069	1634			     ??00F3  label   byte
1  4070	1634  161Er		       dw    qqqqq
1  4071	      =MYCSEG:162F	     qqqqq = ppppp
   4072	1636  0218r 150Br	       DW  JSR,TCODESEMI
   4073	163A  E8 EC3D		     xsmg:   CALL _does
   4074	163D  09E8r 1627r 0A4Dr	  +	     dw	  TCAT,LATEST,tXORTO,texit
   4075	      08C3r
   4076
   4077	1645			     ADRAT:
   4078				      nfi 'AT'
1  4079	      =MYCSEG:1645	     ppppp = $
1  4080				       dstr2 'AT',080h
2  4081	1645  82		       db    ??00F4-$-1+080h
2  4082	1646  41 54		       db    'AT'
2  4083	1648			     ??00F4  label   byte
1  4084	1648  162Fr		       dw    qqqqq
1  4085	      =MYCSEG:1645	     qqqqq = ppppp
   4086	164A  1323r		      DW  X?COMP
   4087	164C  04		      DB  4
   4088
   4089	164D			     ADRTO:
   4090				      nfi 'TO'
1  4091	      =MYCSEG:164D	     ppppp = $
1  4092				       dstr2 'TO',080h
2  4093	164D  82		       db    ??00F5-$-1+080h
2  4094	164E  54 4F		       db    'TO'
2  4095	1650			     ??00F5  label   byte
1  4096	1650  1645r		       dw    qqqqq
1  4097	      =MYCSEG:164D	     qqqqq = ppppp
   4098	1652  1323r		      DW  X?COMP
   4099	1654  02		      DB  2
   4100
   4101				       NF '(COMPIL'
1  4102	      =MYCSEG:1655	     ppppp = $
1  4103				       dstr2 '(COMPIL',0
2  4104	1655  07		       db    ??00F6-$-1+0
Turbo Assembler	 Version 3.2	    12/14/19 15:48:34	    Page 73
PT.asm



2  4105	1656  28 43 4F 4D 50 49	4C     db    '(COMPIL'
2  4106	165D			     ??00F6  label   byte
1  4107	165D  164Dr		       dw    qqqqq
1  4108	      =MYCSEG:1655	     qqqqq = ppppp
   4109	165F  0218r 150Br	       DW  JSR,TCODESEMI
   4110	1663  E8 EC14		     COMPIL: CALL _DOES
   4111	1666  09E8r 0FF5r 0BE2r	  +    dw   tcat,apos,tPlus,TCOMMA,TEXIT
   4112	      1339r 08C3r
   4113
   4114				      NFI "[',]"
1  4115	      =MYCSEG:1670	     ppppp = $
1  4116				       dstr2 "[',]",080h
2  4117	1670  84		       db    ??00F7-$-1+080h
2  4118	1671  5B 27 2C 5D	       db    "[',]"
2  4119	1675			     ??00F7  label   byte
1  4120	1675  1655r		       dw    qqqqq
1  4121	      =MYCSEG:1670	     qqqqq = ppppp
   4122	1677  1663r		       DW COMPIL
   4123	1679  00		       DB 0
   4124
   4125				      NFI '[TO]'
1  4126	      =MYCSEG:167A	     ppppp = $
1  4127				       dstr2 '[TO]',080h
2  4128	167A  84		       db    ??00F8-$-1+080h
2  4129	167B  5B 54 4F 5D	       db    '[TO]'
2  4130	167F			     ??00F8  label   byte
1  4131	167F  1670r		       dw    qqqqq
1  4132	      =MYCSEG:167A	     qqqqq = ppppp
   4133	1681  1663r		       DW COMPIL
   4134	1683  02		       DB 2
   4135
   4136				      NFI '[AT]'
1  4137	      =MYCSEG:1684	     ppppp = $
1  4138				       dstr2 '[AT]',080h
2  4139	1684  84		       db    ??00F9-$-1+080h
2  4140	1685  5B 41 54 5D	       db    '[AT]'
2  4141	1689			     ??00F9  label   byte
1  4142	1689  167Ar		       dw    qqqqq
1  4143	      =MYCSEG:1684	     qqqqq = ppppp
   4144	168B  1663r		       DW COMPIL
   4145	168D  04		       DB 4
   4146
   4147				       NF '<N>'
1  4148	      =MYCSEG:168E	     ppppp = $
1  4149				       dstr2 '<N>',0
2  4150	168E  03		       db    ??00FA-$-1+0
2  4151	168F  3C 4E 3E		       db    '<N>'
2  4152	1692			     ??00FA  label   byte
1  4153	1692  1684r		       dw    qqqqq
1  4154	      =MYCSEG:168E	     qqqqq = ppppp
   4155	1694  0218r 16C1r 16E7r	  +  NSWAP  DW	JSR,NPTR,HERE,TONPTR,TOHERE,TEXIT
   4156	      16C3r 16E9r 08C3r
   4157
   4158				       NF '''SAME'
1  4159	      =MYCSEG:16A0	     ppppp = $
1  4160				       dstr2 '''SAME',0
2  4161	16A0  05		       db    ??00FB-$-1+0
Turbo Assembler	 Version 3.2	    12/14/19 15:48:34	    Page 74
PT.asm



2  4162	16A1  27 53 41 4D 45	       db    '''SAME'
2  4163	16A6			     ??00FB  label   byte
1  4164	16A6  168Er		       dw    qqqqq
1  4165	      =MYCSEG:16A0	     qqqqq = ppppp
   4166	16A8  052Er 0660r 1A7Br	     DUPLICA DW	 ExecAt1,SETVAR,TNOP
   4167
   4168				       nf 'CFA'
1  4169	      =MYCSEG:16AE	     ppppp = $
1  4170				       dstr2 'CFA',0
2  4171	16AE  03		       db    ??00FC-$-1+0
2  4172	16AF  43 46 41		       db    'CFA'
2  4173	16B2			     ??00FC  label   byte
1  4174	16B2  16A0r		       dw    qqqqq
1  4175	      =MYCSEG:16AE	     qqqqq = ppppp
   4176	16B4  0667r 0660r 0000	     CFA:    DW	  DOCON1,SETVAR,0    ; AT CFA =	CFA !
   4177
   4178				       nf 'NPTR'   ; NAME POINTER
1  4179	      =MYCSEG:16BA	     ppppp = $
1  4180				       dstr2 'NPTR',0
2  4181	16BA  04		       db    ??00FD-$-1+0
2  4182	16BB  4E 50 54 52	       db    'NPTR'
2  4183	16BF			     ??00FD  label   byte
1  4184	16BF  16AEr		       dw    qqqqq
1  4185	      =MYCSEG:16BA	     qqqqq = ppppp
   4186	16C1  0667r		     NPTR   Dw DOCON1
   4187	16C3  0660r C000	     TONPTR DW SETVAR,0C000H
   4188
   4189				       nf 'dA'
1  4190	      =MYCSEG:16C7	     ppppp = $
1  4191				       dstr2 'dA',0
2  4192	16C7  02		       db    ??00FE-$-1+0
2  4193	16C8  64 41		       db    'dA'
2  4194	16CA			     ??00FE  label   byte
1  4195	16CA  16BAr		       dw    qqqqq
1  4196	      =MYCSEG:16C7	     qqqqq = ppppp
   4197	16CC  0667r 0660r 0000	     DADR  Dw DOCON1,SETVAR,0
   4198
   4199				       nf 'THERE'
1  4200	      =MYCSEG:16D2	     ppppp = $
1  4201				       dstr2 'THERE',0
2  4202	16D2  05		       db    ??00FF-$-1+0
2  4203	16D3  54 48 45 52 45	       db    'THERE'
2  4204	16D8			     ??00FF  label   byte
1  4205	16D8  16C7r		       dw    qqqqq
1  4206	      =MYCSEG:16D2	     qqqqq = ppppp
   4207	16DA  0272r 0000 0000	     THere   dw	DOVAR,0,0
   4208
   4209				       nf 'HERE'
1  4210	      =MYCSEG:16E0	     ppppp = $
1  4211				       dstr2 'HERE',0
2  4212	16E0  04		       db    ??0100-$-1+0
2  4213	16E1  48 45 52 45	       db    'HERE'
2  4214	16E5			     ??0100  label   byte
1  4215	16E5  16D2r		       dw    qqqqq
1  4216	      =MYCSEG:16E0	     qqqqq = ppppp
   4217	16E7  0666r		     Here   dw DOCON2
   4218	16E9  065Fr		     TOHERE DW SETVAR1
Turbo Assembler	 Version 3.2	    12/14/19 15:48:34	    Page 75
PT.asm



   4219	16EB  0272r 1C21r	     ATHERE DW DOVAR,DtoP
   4220
   4221				       NF 'HEADER'
1  4222	      =MYCSEG:16EF	     ppppp = $
1  4223				       dstr2 'HEADER',0
2  4224	16EF  06		       db    ??0101-$-1+0
2  4225	16F0  48 45 41 44 45 52	       db    'HEADER'
2  4226	16F6			     ??0101  label   byte
1  4227	16F6  16E0r		       dw    qqqqq
1  4228	      =MYCSEG:16EF	     qqqqq = ppppp
   4229	16F8  1ACAr 1746r 1A1Dr	  +  AHEADER:DW	  JSR_TR,HDRS?,TQDUP,TZBRAN,AHEAD3
   4230	      08E5r 1714r
   4231	1702  0BFDr 1748r 16E7r	  +	     DW	  TONEMI,HDRS?+2,HERE,CFA+2
   4232	      16B6r
   4233	170A  1694r 16B4r 130Ar	  +	     DW	  NSWAP,CFA,TBIND,NSWAP,TEX_TR
   4234	      1694r 08F6r
   4235	1714  1724r 16E7r 16B6r	  +  AHEAD3: DW	  AHEAD4,HERE,CFA+2,TEX_TR
   4236	      08F6r
   4237
   4238				       NF 'THEAD'
1  4239	      =MYCSEG:171C	     ppppp = $
1  4240				       dstr2 'THEAD',0
2  4241	171C  05		       db    ??0102-$-1+0
2  4242	171D  54 48 45 41 44	       db    'THEAD'
2  4243	1722			     ??0102  label   byte
1  4244	1722  16EFr		       dw    qqqqq
1  4245	      =MYCSEG:171C	     qqqqq = ppppp
   4246	1724  0218r 16A8r	     AHEAD4: DW	  JSR,DUPLICA
   4247	1728  1843r 16E7r 09C0r	  +	     DW	  CURR@,HERE,T@SWP2,TBLword
   4248	      1068r
   4249	1730  1597r 1339r 08C3r		     dw	  tstrcom,tcomma,TEXIT	 ; ! c@
   4250
   4251				       NF 'N>C'
1  4252	      =MYCSEG:1736	     ppppp = $
1  4253				       dstr2 'N>C',0
2  4254	1736  03		       db    ??0103-$-1+0
2  4255	1737  4E 3E 43		       db    'N>C'
2  4256	173A			     ??0103  label   byte
1  4257	173A  171Cr		       dw    qqqqq
1  4258	      =MYCSEG:1736	     qqqqq = ppppp
   4259	173C  0560r		     tnamcf  DW	XNAMCF
   4260
   4261				       NF 'HDRS?'
1  4262	      =MYCSEG:173E	     ppppp = $
1  4263				       dstr2 'HDRS?',0
2  4264	173E  05		       db    ??0104-$-1+0
2  4265	173F  48 44 52 53 3F	       db    'HDRS?'
2  4266	1744			     ??0104  label   byte
1  4267	1744  1736r		       dw    qqqqq
1  4268	      =MYCSEG:173E	     qqqqq = ppppp
   4269	1746  0666r 065Fr 0272r	  +  HDRS? DW DOCON2,SETVAR1,DOVAR,0
   4270	      0000
   4271
   4272				       NF 'HEADERS'
1  4273	      =MYCSEG:174E	     ppppp = $
1  4274				       dstr2 'HEADERS',0
2  4275	174E  07		       db    ??0105-$-1+0
Turbo Assembler	 Version 3.2	    12/14/19 15:48:34	    Page 76
PT.asm



2  4276	174F  48 45 41 44 45 52	53     db    'HEADERS'
2  4277	1756			     ??0105  label   byte
1  4278	1756  173Er		       dw    qqqqq
1  4279	      =MYCSEG:174E	     qqqqq = ppppp
   4280	1758  0218r 1924r 1748r	  +    DW  JSR,ZR,HDRS?+2,TEXIT
   4281	      08C3r
   4282
   4283				       NF '-HEADERS'
1  4284	      =MYCSEG:1760	     ppppp = $
1  4285				       dstr2 '-HEADERS',0
2  4286	1760  08		       db    ??0106-$-1+0
2  4287	1761  2D 48 45 41 44 45	52+    db    '-HEADERS'
   4288	      53
2  4289	1769			     ??0106  label   byte
1  4290	1769  174Er		       dw    qqqqq
1  4291	      =MYCSEG:1760	     qqqqq = ppppp
   4292	176B  0218r 191Er 1748r	  +    DW  JSR,MO,HDRS?+2,TEXIT
   4293	      08C3r
   4294
   4295				       NF '|'
1  4296	      =MYCSEG:1773	     ppppp = $
1  4297				       dstr2 '|',0
2  4298	1773  01		       db    ??0107-$-1+0
2  4299	1774  7C		       db    '|'
2  4300	1775			     ??0107  label   byte
1  4301	1775  1760r		       dw    qqqqq
1  4302	      =MYCSEG:1773	     qqqqq = ppppp
   4303	1777  0218r 1932r 1748r	  +    DW  JSR,ONE,HDRS?+2,TEXIT
   4304	      08C3r
   4305
   4306				       NF 'XBASE'
1  4307	      =MYCSEG:177F	     ppppp = $
1  4308				       dstr2 'XBASE',0
2  4309	177F  05		       db    ??0108-$-1+0
2  4310	1780  58 42 41 53 45	       db    'XBASE'
2  4311	1785			     ??0108  label   byte
1  4312	1785  1773r		       dw    qqqqq
1  4313	      =MYCSEG:177F	     qqqqq = ppppp
   4314	1787  0218r 150Br	       DW  JSR,TCODESEMI
   4315	178B  E8 EAEC		     xbase: call _does
   4316	178E  09E8r 18E8r 08C3r		    dw Tcat,toBase,texit
   4317
   4318				       NF 'XSTATE'
1  4319	      =MYCSEG:1794	     ppppp = $
1  4320				       dstr2 'XSTATE',0
2  4321	1794  06		       db    ??0109-$-1+0
2  4322	1795  58 53 54 41 54 45	       db    'XSTATE'
2  4323	179B			     ??0109  label   byte
1  4324	179B  177Fr		       dw    qqqqq
1  4325	      =MYCSEG:1794	     qqqqq = ppppp
   4326	179D  0218r 150Br	       DW  JSR,TCODESEMI
   4327	17A1  E8 EAD6		     xstate: call _does
   4328	17A4  09E8r 1887r 08C3r	       dw  tcat,toStat,texit
   4329
   4330				       nf ']'
1  4331	      =MYCSEG:17AA	     ppppp = $
1  4332				       dstr2 ']',0
Turbo Assembler	 Version 3.2	    12/14/19 15:48:34	    Page 77
PT.asm



2  4333	17AA  01		       db    ??010A-$-1+0
2  4334	17AB  5D		       db    ']'
2  4335	17AC			     ??010A  label   byte
1  4336	17AC  1794r		       dw    qqqqq
1  4337	      =MYCSEG:17AA	     qqqqq = ppppp
   4338	17AE  17A1r		     skobaR dw xstate
   4339	17B0  FF		       db -1
   4340
   4341				       nfi '['
1  4342	      =MYCSEG:17B1	     ppppp = $
1  4343				       dstr2 '[',080h
2  4344	17B1  81		       db    ??010B-$-1+080h
2  4345	17B2  5B		       db    '['
2  4346	17B3			     ??010B  label   byte
1  4347	17B3  17AAr		       dw    qqqqq
1  4348	      =MYCSEG:17B1	     qqqqq = ppppp
   4349	17B5  17A1r		     skobaL dw xstate
   4350	17B7  00		       db 0
   4351
   4352				     ;-----------------------^^^^^^^  COMPILER	^^^^^^^-------------
   4353				     ;
   4354
   4355				     ;
   4356				     ;----------------------vvvvvvvv GLOBALS  vvvvvvvv------------
   4357				       nf 'VOCLINK'
1  4358	      =MYCSEG:17B8	     ppppp = $
1  4359				       dstr2 'VOCLINK',0
2  4360	17B8  07		       db    ??010C-$-1+0
2  4361	17B9  56 4F 43 4C 49 4E	4B     db    'VOCLINK'
2  4362	17C0			     ??010C  label   byte
1  4363	17C0  17B1r		       dw    qqqqq
1  4364	      =MYCSEG:17B8	     qqqqq = ppppp
   4365	17C2  0667r 0660r 0FEFr	      DW DOCON1,SETVAR,AFORTH+8
   4366
   4367				       NF 'PREV'
1  4368	      =MYCSEG:17C8	     ppppp = $
1  4369				       dstr2 'PREV',0
2  4370	17C8  04		       db    ??010D-$-1+0
2  4371	17C9  50 52 45 56	       db    'PREV'
2  4372	17CD			     ??010D  label   byte
1  4373	17CD  17B8r		       dw    qqqqq
1  4374	      =MYCSEG:17C8	     qqqqq = ppppp
   4375	17CF  0667r 0660r 0000	      DW DOCON1,SETVAR,0
   4376
   4377				       NF 'USE'
1  4378	      =MYCSEG:17D5	     ppppp = $
1  4379				       dstr2 'USE',0
2  4380	17D5  03		       db    ??010E-$-1+0
2  4381	17D6  55 53 45		       db    'USE'
2  4382	17D9			     ??010E  label   byte
1  4383	17D9  17C8r		       dw    qqqqq
1  4384	      =MYCSEG:17D5	     qqqqq = ppppp
   4385	17DB  0667r 0660r 0000	      DW DOCON1,SETVAR,0
   4386
   4387				       NF 'FIRST'
1  4388	      =MYCSEG:17E1	     ppppp = $
1  4389				       dstr2 'FIRST',0
Turbo Assembler	 Version 3.2	    12/14/19 15:48:34	    Page 78
PT.asm



2  4390	17E1  05		       db    ??010F-$-1+0
2  4391	17E2  46 49 52 53 54	       db    'FIRST'
2  4392	17E7			     ??010F  label   byte
1  4393	17E7  17D5r		       dw    qqqqq
1  4394	      =MYCSEG:17E1	     qqqqq = ppppp
   4395	17E9  0667r 0660r EFF0	      DW DOCON1,SETVAR,FRST
   4396
   4397				       NF 'LIMIT'
1  4398	      =MYCSEG:17EF	     ppppp = $
1  4399				       dstr2 'LIMIT',0
2  4400	17EF  05		       db    ??0110-$-1+0
2  4401	17F0  4C 49 4D 49 54	       db    'LIMIT'
2  4402	17F5			     ??0110  label   byte
1  4403	17F5  17E1r		       dw    qqqqq
1  4404	      =MYCSEG:17EF	     qqqqq = ppppp
   4405	17F7  0667r 0660r 0000	      DW DOCON1,SETVAR,0
   4406
   4407				       NF 'MTOP'
1  4408	      =MYCSEG:17FD	     ppppp = $
1  4409				       dstr2 'MTOP',0
2  4410	17FD  04		       db    ??0111-$-1+0
2  4411	17FE  4D 54 4F 50	       db    'MTOP'
2  4412	1802			     ??0111  label   byte
1  4413	1802  17EFr		       dw    qqqqq
1  4414	      =MYCSEG:17FD	     qqqqq = ppppp
   4415	1804  0666r 065Fr 0272r	  +   dw DOCON2,SETVAR1,DOVAR,0
   4416	      0000
   4417
   4418				       NF 'MPTR'
1  4419	      =MYCSEG:180C	     ppppp = $
1  4420				       dstr2 'MPTR',0
2  4421	180C  04		       db    ??0112-$-1+0
2  4422	180D  4D 50 54 52	       db    'MPTR'
2  4423	1811			     ??0112  label   byte
1  4424	1811  17FDr		       dw    qqqqq
1  4425	      =MYCSEG:180C	     qqqqq = ppppp
   4426	1813  0666r 065Fr 0272r	  +   dw DOCON2,SETVAR1,DOVAR,0
   4427	      0000
   4428
   4429				       NF 'TPTR'
1  4430	      =MYCSEG:181B	     ppppp = $
1  4431				       dstr2 'TPTR',0
2  4432	181B  04		       db    ??0113-$-1+0
2  4433	181C  54 50 54 52	       db    'TPTR'
2  4434	1820			     ??0113  label   byte
1  4435	1820  180Cr		       dw    qqqqq
1  4436	      =MYCSEG:181B	     qqqqq = ppppp
   4437	1822  0666r 065Fr 0272r	  +   dw DOCON2,SETVAR1,DOVAR,0
   4438	      0000
   4439
   4440				       NF 'SPTR'
1  4441	      =MYCSEG:182A	     ppppp = $
1  4442				       dstr2 'SPTR',0
2  4443	182A  04		       db    ??0114-$-1+0
2  4444	182B  53 50 54 52	       db    'SPTR'
2  4445	182F			     ??0114  label   byte
1  4446	182F  181Br		       dw    qqqqq
Turbo Assembler	 Version 3.2	    12/14/19 15:48:34	    Page 79
PT.asm



1  4447	      =MYCSEG:182A	     qqqqq = ppppp
   4448	1831  0666r 065Fr 0272r	  +   dw DOCON2,SETVAR1,DOVAR,0
   4449	      0000
   4450
   4451				       nf 'CURRENT'
1  4452	      =MYCSEG:1839	     ppppp = $
1  4453				       dstr2 'CURRENT',0
2  4454	1839  07		       db    ??0115-$-1+0
2  4455	183A  43 55 52 52 45 4E	54     db    'CURRENT'
2  4456	1841			     ??0115  label   byte
1  4457	1841  182Ar		       dw    qqqqq
1  4458	      =MYCSEG:1839	     qqqqq = ppppp
   4459	1843  0667r		     CURR@   DW	DOCON1
   4460	1845  0660r 0FEDr	     toCURR  dw	SETVAR,AFORTH+6
   4461
   4462				       nf 'CONTEXT'
1  4463	      =MYCSEG:1849	     ppppp = $
1  4464				       dstr2 'CONTEXT',0
2  4465	1849  07		       db    ??0116-$-1+0
2  4466	184A  43 4F 4E 54 45 58	54     db    'CONTEXT'
2  4467	1851			     ??0116  label   byte
1  4468	1851  1839r		       dw    qqqqq
1  4469	      =MYCSEG:1849	     qqqqq = ppppp
   4470	1853  0667r		     CONT@   dw	DOCON1
   4471	1855  0660r 0FEDr	     toCONT  dw	SETVAR,AFORTH+6
   4472
   4473				       nf 'TIB'
1  4474	      =MYCSEG:1859	     ppppp = $
1  4475				       dstr2 'TIB',0
2  4476	1859  03		       db    ??0117-$-1+0
2  4477	185A  54 49 42		       db    'TIB'
2  4478	185D			     ??0117  label   byte
1  4479	185D  1849r		       dw    qqqqq
1  4480	      =MYCSEG:1859	     qqqqq = ppppp
   4481	185F  0667r		     TIB@   dw DOCON1
   4482	1861  0660r 0000	     toTIB  dw SETVAR,0
   4483
   4484				       nf 'BLK'
1  4485	      =MYCSEG:1865	     ppppp = $
1  4486				       dstr2 'BLK',0
2  4487	1865  03		       db    ??0118-$-1+0
2  4488	1866  42 4C 4B		       db    'BLK'
2  4489	1869			     ??0118  label   byte
1  4490	1869  1859r		       dw    qqqqq
1  4491	      =MYCSEG:1865	     qqqqq = ppppp
   4492	186B  0667r		     BLK@   dw DOCON1
   4493	186D  0660r 0000	     toBLK  dw SETVAR,0
   4494
   4495				       nf '>IN'
1  4496	      =MYCSEG:1871	     ppppp = $
1  4497				       dstr2 '>IN',0
2  4498	1871  03		       db    ??0119-$-1+0
2  4499	1872  3E 49 4E		       db    '>IN'
2  4500	1875			     ??0119  label   byte
1  4501	1875  1865r		       dw    qqqqq
1  4502	      =MYCSEG:1871	     qqqqq = ppppp
   4503	1877  0667r		     TOIN@  dw DOCON1
Turbo Assembler	 Version 3.2	    12/14/19 15:48:34	    Page 80
PT.asm



   4504	1879  0660r 0000	     toTOIN dw SETVAR,0
   4505
   4506				       nf 'STATE'
1  4507	      =MYCSEG:187D	     ppppp = $
1  4508				       dstr2 'STATE',0
2  4509	187D  05		       db    ??011A-$-1+0
2  4510	187E  53 54 41 54 45	       db    'STATE'
2  4511	1883			     ??011A  label   byte
1  4512	1883  1871r		       dw    qqqqq
1  4513	      =MYCSEG:187D	     qqqqq = ppppp
   4514	1885  0667r		     STAT@  dw DOCON1
   4515	1887  0660r		     toSTAT dw SETVAR
   4516	1889  0000		     UvSTAT DW 0
   4517
   4518				       nf 'SPAN'
1  4519	      =MYCSEG:188B	     ppppp = $
1  4520				       dstr2 'SPAN',0
2  4521	188B  04		       db    ??011B-$-1+0
2  4522	188C  53 50 41 4E	       db    'SPAN'
2  4523	1890			     ??011B  label   byte
1  4524	1890  187Dr		       dw    qqqqq
1  4525	      =MYCSEG:188B	     qqqqq = ppppp
   4526	1892  0667r		     SPAN@  dw DOCON1
   4527	1894  0660r 0000	     toSPAN dw SETVAR,0
   4528
   4529				       nf 'DBL'
1  4530	      =MYCSEG:1898	     ppppp = $
1  4531				       dstr2 'DBL',0
2  4532	1898  03		       db    ??011C-$-1+0
2  4533	1899  44 42 4C		       db    'DBL'
2  4534	189C			     ??011C  label   byte
1  4535	189C  188Br		       dw    qqqqq
1  4536	      =MYCSEG:1898	     qqqqq = ppppp
   4537	189E  0667r		     DBL@   dw DOCON1
   4538	18A0  0660r 0000	     toDBL  dw SETVAR,0
   4539
   4540				       nf 'OUTC'
1  4541	      =MYCSEG:18A4	     ppppp = $
1  4542				       dstr2 'OUTC',0
2  4543	18A4  04		       db    ??011D-$-1+0
2  4544	18A5  4F 55 54 43	       db    'OUTC'
2  4545	18A9			     ??011D  label   byte
1  4546	18A9  1898r		       dw    qqqqq
1  4547	      =MYCSEG:18A4	     qqqqq = ppppp
   4548	18AB  0667r		     OUTC@   dw	DOCON1
   4549	18AD  0660r 0000	     toOUTC  dw	SETVAR,0
   4550
   4551				       nf 'CSP'
1  4552	      =MYCSEG:18B1	     ppppp = $
1  4553				       dstr2 'CSP',0
2  4554	18B1  03		       db    ??011E-$-1+0
2  4555	18B2  43 53 50		       db    'CSP'
2  4556	18B5			     ??011E  label   byte
1  4557	18B5  18A4r		       dw    qqqqq
1  4558	      =MYCSEG:18B1	     qqqqq = ppppp
   4559	18B7  0667r		     CSP@   dw DOCON1
   4560	18B9  0660r 0000	     toCSP  dw SETVAR,0
Turbo Assembler	 Version 3.2	    12/14/19 15:48:34	    Page 81
PT.asm



   4561
   4562				       nf 'SCR'
1  4563	      =MYCSEG:18BD	     ppppp = $
1  4564				       dstr2 'SCR',0
2  4565	18BD  03		       db    ??011F-$-1+0
2  4566	18BE  53 43 52		       db    'SCR'
2  4567	18C1			     ??011F  label   byte
1  4568	18C1  18B1r		       dw    qqqqq
1  4569	      =MYCSEG:18BD	     qqqqq = ppppp
   4570	18C3  0667r		     SCR@    dw	DOCON1
   4571	18C5  0660r 0000	     toSCR   dw	SETVAR,0
   4572
   4573				     ;----------------------^^^^^^^^ GLOBALS  ^^^^^^^^------------
   4574
   4575				     ;---------------vvvvvvvv TASK VARIABLES vvvvvv-----------
   4576				       nf 'S0'
1  4577	      =MYCSEG:18C9	     ppppp = $
1  4578				       dstr2 'S0',0
2  4579	18C9  02		       db    ??0120-$-1+0
2  4580	18CA  53 30		       db    'S0'
2  4581	18CC			     ??0120  label   byte
1  4582	18CC  18BDr		       dw    qqqqq
1  4583	      =MYCSEG:18C9	     qqqqq = ppppp
   4584	18CE  0676r		     S0@    dw XUVAR@0
   4585	18D0  067Cr		     toS0   dw XtoUVR
   4586	18D2  0006			 dw  UvS0-Uv0
   4587
   4588				       nf 'R0'
1  4589	      =MYCSEG:18D4	     ppppp = $
1  4590				       dstr2 'R0',0
2  4591	18D4  02		       db    ??0121-$-1+0
2  4592	18D5  52 30		       db    'R0'
2  4593	18D7			     ??0121  label   byte
1  4594	18D7  18C9r		       dw    qqqqq
1  4595	      =MYCSEG:18D4	     qqqqq = ppppp
   4596	18D9  0676r		     R0@    dw XUVAR@0
   4597	18DB  067Cr		     toR0   dw XtoUVR
   4598	18DD  0008			 dw  UvR0-Uv0
   4599
   4600				       nf 'BASE'
1  4601	      =MYCSEG:18DF	     ppppp = $
1  4602				       dstr2 'BASE',0
2  4603	18DF  04		       db    ??0122-$-1+0
2  4604	18E0  42 41 53 45	       db    'BASE'
2  4605	18E4			     ??0122  label   byte
1  4606	18E4  18D4r		       dw    qqqqq
1  4607	      =MYCSEG:18DF	     qqqqq = ppppp
   4608	18E6  0676r		     BASE@  dw XUVAR@0
   4609	18E8  067Cr		     toBASE dw XtoUVR
   4610	18EA  000A			 dw  UvBASE-Uv0
   4611
   4612				       nf 'U0'
1  4613	      =MYCSEG:18EC	     ppppp = $
1  4614				       dstr2 'U0',0
2  4615	18EC  02		       db    ??0123-$-1+0
2  4616	18ED  55 30		       db    'U0'
2  4617	18EF			     ??0123  label   byte
Turbo Assembler	 Version 3.2	    12/14/19 15:48:34	    Page 82
PT.asm



1  4618	18EF  18DFr		       dw    qqqqq
1  4619	      =MYCSEG:18EC	     qqqqq = ppppp
   4620	18F1  0681r			    dw X@UVAR
   4621	18F3  0000			 dw  0
   4622
   4623				     ;---------------^^^^^^^^ TASK VARIABLES ^^^^^^^^---------
   4624
   4625
   4626				     ;---------------vvvvvvvv CONSTANTS	vvvvvv-----------
   4627				       nf 'bs'
1  4628	      =MYCSEG:18F5	     ppppp = $
1  4629				       dstr2 'bs',0
2  4630	18F5  02		       db    ??0124-$-1+0
2  4631	18F6  62 73		       db    'bs'
2  4632	18F8			     ??0124  label   byte
1  4633	18F8  18ECr		       dw    qqqqq
1  4634	      =MYCSEG:18F5	     qqqqq = ppppp
   4635	18FA  0668r 0008	     bs	 dw docon,8
   4636
   4637				       nf 'bl'
1  4638	      =MYCSEG:18FE	     ppppp = $
1  4639				       dstr2 'bl',0
2  4640	18FE  02		       db    ??0125-$-1+0
2  4641	18FF  62 6C		       db    'bl'
2  4642	1901			     ??0125  label   byte
1  4643	1901  18F5r		       dw    qqqqq
1  4644	      =MYCSEG:18FE	     qqqqq = ppppp
   4645	1903  0668r 0020	     blc dw docon,32
   4646
   4647				       nf 'lf'
1  4648	      =MYCSEG:1907	     ppppp = $
1  4649				       dstr2 'lf',0
2  4650	1907  02		       db    ??0126-$-1+0
2  4651	1908  6C 66		       db    'lf'
2  4652	190A			     ??0126  label   byte
1  4653	190A  18FEr		       dw    qqqqq
1  4654	      =MYCSEG:1907	     qqqqq = ppppp
   4655	190C  0668r 000A	     lf	 dw docon,0ah
   4656
   4657				       nf 'cr'
1  4658	      =MYCSEG:1910	     ppppp = $
1  4659				       dstr2 'cr',0
2  4660	1910  02		       db    ??0127-$-1+0
2  4661	1911  63 72		       db    'cr'
2  4662	1913			     ??0127  label   byte
1  4663	1913  1907r		       dw    qqqqq
1  4664	      =MYCSEG:1910	     qqqqq = ppppp
   4665	1915  0668r 000D	     cr	 dw docon,0dh
   4666
   4667				       nf '-1'
1  4668	      =MYCSEG:1919	     ppppp = $
1  4669				       dstr2 '-1',0
2  4670	1919  02		       db    ??0128-$-1+0
2  4671	191A  2D 31		       db    '-1'
2  4672	191C			     ??0128  label   byte
1  4673	191C  1910r		       dw    qqqqq
1  4674	      =MYCSEG:1919	     qqqqq = ppppp
Turbo Assembler	 Version 3.2	    12/14/19 15:48:34	    Page 83
PT.asm



   4675	191E  0329r		     mo	 dw   _m1
   4676
   4677				       nf '0'
1  4678	      =MYCSEG:1920	     ppppp = $
1  4679				       dstr2 '0',0
2  4680	1920  01		       db    ??0129-$-1+0
2  4681	1921  30		       db    '0'
2  4682	1922			     ??0129  label   byte
1  4683	1922  1919r		       dw    qqqqq
1  4684	      =MYCSEG:1920	     qqqqq = ppppp
   4685	1924  0323r		     zr	    dw	_zero
   4686
   4687				       nf '2'
1  4688	      =MYCSEG:1926	     ppppp = $
1  4689				       dstr2 '2',0
2  4690	1926  01		       db    ??012A-$-1+0
2  4691	1927  32		       db    '2'
2  4692	1928			     ??012A  label   byte
1  4693	1928  1920r		       dw    qqqqq
1  4694	      =MYCSEG:1926	     qqqqq = ppppp
   4695	192A  0668r 0002	     two dw docon,2
   4696
   4697				       nf '1'
1  4698	      =MYCSEG:192E	     ppppp = $
1  4699				       dstr2 '1',0
2  4700	192E  01		       db    ??012B-$-1+0
2  4701	192F  31		       db    '1'
2  4702	1930			     ??012B  label   byte
1  4703	1930  1926r		       dw    qqqqq
1  4704	      =MYCSEG:192E	     qqqqq = ppppp
   4705	1932  0668r 0001	     one dw docon,1
   4706
   4707				       nf '#does'
1  4708	      =MYCSEG:1936	     ppppp = $
1  4709				       dstr2 '#does',0
2  4710	1936  05		       db    ??012C-$-1+0
2  4711	1937  23 64 6F 65 73	       db    '#does'
2  4712	193C			     ??012C  label   byte
1  4713	193C  192Er		       dw    qqqqq
1  4714	      =MYCSEG:1936	     qqqqq = ppppp
   4715	193E  0668r 027Ar	     CDOES dw docon,_DOES
   4716
   4717				     ;---------------^^^^^^^  CONSTANTS	^^^^^^^----------
   4718
   4719				     ;---------------^^^^^^^  STACK ^^^^^^^----------
   4720				      NF 'POP'
1  4721	      =MYCSEG:1942	     ppppp = $
1  4722				       dstr2 'POP',0
2  4723	1942  03		       db    ??012D-$-1+0
2  4724	1943  50 4F 50		       db    'POP'
2  4725	1946			     ??012D  label   byte
1  4726	1946  1936r		       dw    qqqqq
1  4727	      =MYCSEG:1942	     qqqqq = ppppp
   4728	1948			     TPOP:
   4729	1948  02D7r		     trfr    DW	  XRFR	     ; R>
   4730
   4731				      NF 'PUSH'
Turbo Assembler	 Version 3.2	    12/14/19 15:48:34	    Page 84
PT.asm



1  4732	      =MYCSEG:194A	     ppppp = $
1  4733				       dstr2 'PUSH',0
2  4734	194A  04		       db    ??012E-$-1+0
2  4735	194B  50 55 53 48	       db    'PUSH'
2  4736	194F			     ??012E  label   byte
1  4737	194F  1942r		       dw    qqqqq
1  4738	      =MYCSEG:194A	     qqqqq = ppppp
   4739	1951			     TPUSH:
   4740	1951  01C1r		     ttor    DW	  XTOR	     ; >R
   4741
   4742				      NF '@R+'
1  4743	      =MYCSEG:1953	     ppppp = $
1  4744				       dstr2 '@R+',0
2  4745	1953  03		       db    ??012F-$-1+0
2  4746	1954  40 52 2B		       db    '@R+'
2  4747	1957			     ??012F  label   byte
1  4748	1957  194Ar		       dw    qqqqq
1  4749	      =MYCSEG:1953	     qqqqq = ppppp
   4750	1959  0382r		     TRATPW   DW XRATPW
   4751
   4752				      NF 'C@R+'
1  4753	      =MYCSEG:195B	     ppppp = $
1  4754				       dstr2 'C@R+',0
2  4755	195B  04		       db    ??0130-$-1+0
2  4756	195C  43 40 52 2B	       db    'C@R+'
2  4757	1960			     ??0130  label   byte
1  4758	1960  1953r		       dw    qqqqq
1  4759	      =MYCSEG:195B	     qqqqq = ppppp
   4760	1962  0388r			     DW	XRATPB
   4761				      NF 'R@'
1  4762	      =MYCSEG:1964	     ppppp = $
1  4763				       dstr2 'R@',0
2  4764	1964  02		       db    ??0131-$-1+0
2  4765	1965  52 40		       db    'R@'
2  4766	1967			     ??0131  label   byte
1  4767	1967  195Br		       dw    qqqqq
1  4768	      =MYCSEG:1964	     qqqqq = ppppp
   4769	1969  037Cr		     trat    DW	  XRAT	     ; R@
   4770
   4771				      NF 'RP@'
1  4772	      =MYCSEG:196B	     ppppp = $
1  4773				       dstr2 'RP@',0
2  4774	196B  03		       db    ??0132-$-1+0
2  4775	196C  52 50 40		       db    'RP@'
2  4776	196F			     ??0132  label   byte
1  4777	196F  1964r		       dw    qqqqq
1  4778	      =MYCSEG:196B	     qqqqq = ppppp
   4779	1971  0252r		     tRpGt   DW	  XRPGT	     ; RP@
   4780
   4781				      NF 'RP!'
1  4782	      =MYCSEG:1973	     ppppp = $
1  4783				       dstr2 'RP!',0
2  4784	1973  03		       db    ??0133-$-1+0
2  4785	1974  52 50 21		       db    'RP!'
2  4786	1977			     ??0133  label   byte
1  4787	1977  196Br		       dw    qqqqq
1  4788	      =MYCSEG:1973	     qqqqq = ppppp
Turbo Assembler	 Version 3.2	    12/14/19 15:48:34	    Page 85
PT.asm



   4789	1979  0259r		     tRpSt   DW	  XRPST	     ; RP!
   4790
   4791				      NF 'DROP'
1  4792	      =MYCSEG:197B	     ppppp = $
1  4793				       dstr2 'DROP',0
2  4794	197B  04		       db    ??0134-$-1+0
2  4795	197C  44 52 4F 50	       db    'DROP'
2  4796	1980			     ??0134  label   byte
1  4797	1980  1973r		       dw    qqqqq
1  4798	      =MYCSEG:197B	     qqqqq = ppppp
   4799	1982  0275r		     tdrop   DW	  XDROP	     ; DROP
   4800				      NF '2DROP'
1  4801	      =MYCSEG:1984	     ppppp = $
1  4802				       dstr2 '2DROP',0
2  4803	1984  05		       db    ??0135-$-1+0
2  4804	1985  32 44 52 4F 50	       db    '2DROP'
2  4805	198A			     ??0135  label   byte
1  4806	198A  197Br		       dw    qqqqq
1  4807	      =MYCSEG:1984	     qqqqq = ppppp
   4808	198C  02E1r		     tdrop2  DW	  XDROP2     ; 2DROP
   4809				      NF 'RDROP'
1  4810	      =MYCSEG:198E	     ppppp = $
1  4811				       dstr2 'RDROP',0
2  4812	198E  05		       db    ??0136-$-1+0
2  4813	198F  52 44 52 4F 50	       db    'RDROP'
2  4814	1994			     ??0136  label   byte
1  4815	1994  1984r		       dw    qqqqq
1  4816	      =MYCSEG:198E	     qqqqq = ppppp
   4817	1996  0209r		     TRDROP  DW	  XRDROP     ; RDROP
   4818				      NF 'DUP'
1  4819	      =MYCSEG:1998	     ppppp = $
1  4820				       dstr2 'DUP',0
2  4821	1998  03		       db    ??0137-$-1+0
2  4822	1999  44 55 50		       db    'DUP'
2  4823	199C			     ??0137  label   byte
1  4824	199C  198Er		       dw    qqqqq
1  4825	      =MYCSEG:1998	     qqqqq = ppppp
   4826	199E  0230r		     tdup    DW	  XDUP	     ; DUP
   4827				      NF '2DUP'
1  4828	      =MYCSEG:19A0	     ppppp = $
1  4829				       dstr2 '2DUP',0
2  4830	19A0  04		       db    ??0138-$-1+0
2  4831	19A1  32 44 55 50	       db    '2DUP'
2  4832	19A5			     ??0138  label   byte
1  4833	19A5  1998r		       dw    qqqqq
1  4834	      =MYCSEG:19A0	     qqqqq = ppppp
   4835	19A7  02CCr		     TDUP2   DW	  XDUP2	     ; 2DUP
   4836				      NF 'TUCK'
1  4837	      =MYCSEG:19A9	     ppppp = $
1  4838				       dstr2 'TUCK',0
2  4839	19A9  04		       db    ??0139-$-1+0
2  4840	19AA  54 55 43 4B	       db    'TUCK'
2  4841	19AE			     ??0139  label   byte
1  4842	19AE  19A0r		       dw    qqqqq
1  4843	      =MYCSEG:19A9	     qqqqq = ppppp
   4844	19B0  02D2r			     DW	  XTUCK	     ; TUCK
   4845				       nf 'NIP'
Turbo Assembler	 Version 3.2	    12/14/19 15:48:34	    Page 86
PT.asm



1  4846	      =MYCSEG:19B2	     ppppp = $
1  4847				       dstr2 'NIP',0
2  4848	19B2  03		       db    ??013A-$-1+0
2  4849	19B3  4E 49 50		       db    'NIP'
2  4850	19B6			     ??013A  label   byte
1  4851	19B6  19A9r		       dw    qqqqq
1  4852	      =MYCSEG:19B2	     qqqqq = ppppp
   4853	19B8  02DEr		       DW XNIP
   4854
   4855				     ;---------------^^^^^^^  STACK ^^^^^^^----------
   4856
   4857
   4858				     ;---------------vvvvvvv  LOGICAL vvvvvvv----------
   4859
   4860				      NF '<'
1  4861	      =MYCSEG:19BA	     ppppp = $
1  4862				       dstr2 '<',0
2  4863	19BA  01		       db    ??013B-$-1+0
2  4864	19BB  3C		       db    '<'
2  4865	19BC			     ??013B  label   byte
1  4866	19BC  19B2r		       dw    qqqqq
1  4867	      =MYCSEG:19BA	     qqqqq = ppppp
   4868	19BE  033Ar		     TLESS   DW	  XCHK	     ; <
   4869	19C0  FF 00 00			     DB	  -1,0,0
   4870				      NF '='
1  4871	      =MYCSEG:19C3	     ppppp = $
1  4872				       dstr2 '=',0
2  4873	19C3  01		       db    ??013C-$-1+0
2  4874	19C4  3D		       db    '='
2  4875	19C5			     ??013C  label   byte
1  4876	19C5  19BAr		       dw    qqqqq
1  4877	      =MYCSEG:19C3	     qqqqq = ppppp
   4878	19C7  033Ar		     tequal  DW	  XCHK	     ; =
   4879	19C9  00 FF 00			     DB	  0,-1,0
   4880				      NF 'U<'
1  4881	      =MYCSEG:19CC	     ppppp = $
1  4882				       dstr2 'U<',0
2  4883	19CC  02		       db    ??013D-$-1+0
2  4884	19CD  55 3C		       db    'U<'
2  4885	19CF			     ??013D  label   byte
1  4886	19CF  19C3r		       dw    qqqqq
1  4887	      =MYCSEG:19CC	     qqqqq = ppppp
   4888	19D1  0333r		     TULESS  DW	  XUCHK	     ; U<
   4889	19D3  FF 00 00			     DB	  -1,0,0
   4890				      NF '0<'
1  4891	      =MYCSEG:19D6	     ppppp = $
1  4892				       dstr2 '0<',0
2  4893	19D6  02		       db    ??013E-$-1+0
2  4894	19D7  30 3C		       db    '0<'
2  4895	19D9			     ??013E  label   byte
1  4896	19D9  19CCr		       dw    qqqqq
1  4897	      =MYCSEG:19D6	     qqqqq = ppppp
   4898	19DB  01E4r		     TZLESS  DW	  X0LESS     ; 0<
   4899				      NF '0='
1  4900	      =MYCSEG:19DD	     ppppp = $
1  4901				       dstr2 '0=',0
2  4902	19DD  02		       db    ??013F-$-1+0
Turbo Assembler	 Version 3.2	    12/14/19 15:48:34	    Page 87
PT.asm



2  4903	19DE  30 3D		       db    '0='
2  4904	19E0			     ??013F  label   byte
1  4905	19E0  19D6r		       dw    qqqqq
1  4906	      =MYCSEG:19DD	     qqqqq = ppppp
   4907	19E2  033Er		     TZEQ    DW	  XZCHK	     ; 0=
   4908	19E4  00 FF 00			     DB	  0,-1,0
   4909				      NF '0>='
1  4910	      =MYCSEG:19E7	     ppppp = $
1  4911				       dstr2 '0>=',0
2  4912	19E7  03		       db    ??0140-$-1+0
2  4913	19E8  30 3E 3D		       db    '0>='
2  4914	19EB			     ??0140  label   byte
1  4915	19EB  19DDr		       dw    qqqqq
1  4916	      =MYCSEG:19E7	     qqqqq = ppppp
   4917	19ED  033Er		     TZGREQ  DW	  XZCHK	     ; 0>=
   4918	19EF  00 FF FF			     DB	  0,-1,-1
   4919				      NF '0<>'
1  4920	      =MYCSEG:19F2	     ppppp = $
1  4921				       dstr2 '0<>',0
2  4922	19F2  03		       db    ??0141-$-1+0
2  4923	19F3  30 3C 3E		       db    '0<>'
2  4924	19F6			     ??0141  label   byte
1  4925	19F6  19E7r		       dw    qqqqq
1  4926	      =MYCSEG:19F2	     qqqqq = ppppp
   4927	19F8  033Er		     tzne    DW	  XZCHK	     ; 0<>
   4928	19FA  FF 00 FF			     DB	  -1,0,-1
   4929				      NF 'I'
1  4930	      =MYCSEG:19FD	     ppppp = $
1  4931				       dstr2 'I',0
2  4932	19FD  01		       db    ??0142-$-1+0
2  4933	19FE  49		       db    'I'
2  4934	19FF			     ??0142  label   byte
1  4935	19FF  19F2r		       dw    qqqqq
1  4936	      =MYCSEG:19FD	     qqqqq = ppppp
   4937	1A01  03F2r		     ti	     DW	  XI	     ; I DO LOOP
   4938				      NF 'OVER'
1  4939	      =MYCSEG:1A03	     ppppp = $
1  4940				       dstr2 'OVER',0
2  4941	1A03  04		       db    ??0143-$-1+0
2  4942	1A04  4F 56 45 52	       db    'OVER'
2  4943	1A08			     ??0143  label   byte
1  4944	1A08  19FDr		       dw    qqqqq
1  4945	      =MYCSEG:1A03	     qqqqq = ppppp
   4946	1A0A  02BDr		     tover   DW	  XOVER	     ; OVER
   4947				      NF '2OVER'
1  4948	      =MYCSEG:1A0C	     ppppp = $
1  4949				       dstr2 '2OVER',0
2  4950	1A0C  05		       db    ??0144-$-1+0
2  4951	1A0D  32 4F 56 45 52	       db    '2OVER'
2  4952	1A12			     ??0144  label   byte
1  4953	1A12  1A03r		       dw    qqqqq
1  4954	      =MYCSEG:1A0C	     qqqqq = ppppp
   4955	1A14  03B8r		     TOVER2  DW	  XOVER2     ; 2OVER
   4956				      NF '?DUP'
1  4957	      =MYCSEG:1A16	     ppppp = $
1  4958				       dstr2 '?DUP',0
2  4959	1A16  04		       db    ??0145-$-1+0
Turbo Assembler	 Version 3.2	    12/14/19 15:48:34	    Page 88
PT.asm



2  4960	1A17  3F 44 55 50	       db    '?DUP'
2  4961	1A1B			     ??0145  label   byte
1  4962	1A1B  1A0Cr		       dw    qqqqq
1  4963	      =MYCSEG:1A16	     qqqqq = ppppp
   4964	1A1D  022Cr		     tqdup   DW	  XQDUP	     ; ?DUP
   4965				      NF 'ROT'
1  4966	      =MYCSEG:1A1F	     ppppp = $
1  4967				       dstr2 'ROT',0
2  4968	1A1F  03		       db    ??0146-$-1+0
2  4969	1A20  52 4F 54		       db    'ROT'
2  4970	1A23			     ??0146  label   byte
1  4971	1A23  1A16r		       dw    qqqqq
1  4972	      =MYCSEG:1A1F	     qqqqq = ppppp
   4973	1A25  02C1r		     trot    DW	  XROT	     ; ROT
   4974				      NF '-ROT'
1  4975	      =MYCSEG:1A27	     ppppp = $
1  4976				       dstr2 '-ROT',0
2  4977	1A27  04		       db    ??0147-$-1+0
2  4978	1A28  2D 52 4F 54	       db    '-ROT'
2  4979	1A2C			     ??0147  label   byte
1  4980	1A2C  1A1Fr		       dw    qqqqq
1  4981	      =MYCSEG:1A27	     qqqqq = ppppp
   4982	1A2E  02C6r		     tmrot   DW	  XMROT	     ; -ROT
   4983				      NF 'SP@'
1  4984	      =MYCSEG:1A30	     ppppp = $
1  4985				       dstr2 'SP@',0
2  4986	1A30  03		       db    ??0148-$-1+0
2  4987	1A31  53 50 40		       db    'SP@'
2  4988	1A34			     ??0148  label   byte
1  4989	1A34  1A27r		       dw    qqqqq
1  4990	      =MYCSEG:1A30	     qqqqq = ppppp
   4991	1A36  024Dr		     TSPGT   DW	  XSPGT	     ; SP@
   4992				      NF 'SP!'
1  4993	      =MYCSEG:1A38	     ppppp = $
1  4994				       dstr2 'SP!',0
2  4995	1A38  03		       db    ??0149-$-1+0
2  4996	1A39  53 50 21		       db    'SP!'
2  4997	1A3C			     ??0149  label   byte
1  4998	1A3C  1A30r		       dw    qqqqq
1  4999	      =MYCSEG:1A38	     qqqqq = ppppp
   5000	1A3E  0256r		     tSpSt   DW	  XSPST	     ; SP!
   5001				      NF 'XCHG'
1  5002	      =MYCSEG:1A40	     ppppp = $
1  5003				       dstr2 'XCHG',0
2  5004	1A40  04		       db    ??014A-$-1+0
2  5005	1A41  58 43 48 47	       db    'XCHG'
2  5006	1A45			     ??014A  label   byte
1  5007	1A45  1A38r		       dw    qqqqq
1  5008	      =MYCSEG:1A40	     qqqqq = ppppp
   5009	1A47  02B5r		     tXCHG   DW	  XXCHG	     ; XCHG
   5010				      NF 'SWAP'
1  5011	      =MYCSEG:1A49	     ppppp = $
1  5012				       dstr2 'SWAP',0
2  5013	1A49  04		       db    ??014B-$-1+0
2  5014	1A4A  53 57 41 50	       db    'SWAP'
2  5015	1A4E			     ??014B  label   byte
1  5016	1A4E  1A40r		       dw    qqqqq
Turbo Assembler	 Version 3.2	    12/14/19 15:48:34	    Page 89
PT.asm



1  5017	      =MYCSEG:1A49	     qqqqq = ppppp
   5018	1A50  02BAr		     tswap   DW	  XSWAP	     ; SWAP
   5019				      NF '2SWAP'
1  5020	      =MYCSEG:1A52	     ppppp = $
1  5021				       dstr2 '2SWAP',0
2  5022	1A52  05		       db    ??014C-$-1+0
2  5023	1A53  32 53 57 41 50	       db    '2SWAP'
2  5024	1A58			     ??014C  label   byte
1  5025	1A58  1A49r		       dw    qqqqq
1  5026	      =MYCSEG:1A52	     qqqqq = ppppp
   5027	1A5A  03AFr		     tswap2  DW	  XSWAP2     ; 2SWAP
   5028				      NF '(STR'
1  5029	      =MYCSEG:1A5C	     ppppp = $
1  5030				       dstr2 '(STR',0
2  5031	1A5C  04		       db    ??014D-$-1+0
2  5032	1A5D  28 53 54 52	       db    '(STR'
2  5033	1A61			     ??014D  label   byte
1  5034	1A61  1A52r		       dw    qqqqq
1  5035	      =MYCSEG:1A5C	     qqqqq = ppppp
   5036	1A63  0397r		     tSKPs   DW	  XSKPS	     ; (")
   5037	1A65  038Er		     tSKPSW  DW	  XSKPSW     ; (")
   5038				      NF 'ORIGIN+'
1  5039	      =MYCSEG:1A67	     ppppp = $
1  5040				       dstr2 'ORIGIN+',0
2  5041	1A67  07		       db    ??014E-$-1+0
2  5042	1A68  4F 52 49 47 49 4E	2B     db    'ORIGIN+'
2  5043	1A6F			     ??014E  label   byte
1  5044	1A6F  1A5Cr		       dw    qqqqq
1  5045	      =MYCSEG:1A67	     qqqqq = ppppp
   5046	1A71  02F0r			     DW	  @MYARY     ;DW   xorig      ;	ORIGIN+
   5047	1A73  03DFr			     DW	  XQARY	     ; 4* ARRAY
   5048
   5049					     NF	'NOP'
1  5050	      =MYCSEG:1A75	     ppppp = $
1  5051				       dstr2 'NOP',0
2  5052	1A75  03		       db    ??014F-$-1+0
2  5053	1A76  4E 4F 50		       db    'NOP'
2  5054	1A79			     ??014F  label   byte
1  5055	1A79  1A67r		       dw    qqqqq
1  5056	      =MYCSEG:1A75	     qqqqq = ppppp
   5057	1A7B  0285r		     TNOP	 DW   _NEXT
   5058
   5059					 NF 'ATTR'
1  5060	      =MYCSEG:1A7D	     ppppp = $
1  5061				       dstr2 'ATTR',0
2  5062	1A7D  04		       db    ??0150-$-1+0
2  5063	1A7E  41 54 54 52	       db    'ATTR'
2  5064	1A82			     ??0150  label   byte
1  5065	1A82  1A75r		       dw    qqqqq
1  5066	      =MYCSEG:1A7D	     qqqqq = ppppp
   5067	1A84  0272r			  dw	  DOVAR
   5068	1A86  1A		     ATTR DB 26
   5069	1A87  00		     VPAG DB 0
   5070	1A88  03DFr			  DW   XQARY	  ; 4* ARRAY
   5071
   5072				     ; ---------------	  DEBUGER  ------------------vvvvvvvvv
   5073
Turbo Assembler	 Version 3.2	    12/14/19 15:48:34	    Page 90
PT.asm



   5074	1A8A  50		     OUTWORD:PUSH AX
   5075	1A8B  8A C4			     MOV  aL,aH
   5076	1A8D  E8 0001			     call OUTBYTE
   5077	1A90  58			     pop  ax
   5078	1A91  50		     OUTBYTE:push ax
   5079	1A92  B1 04			     mov cl,4
   5080	1A94  D2 E8			     shr al,cl
   5081	1A96  E8 0001			     call outdig
   5082	1A99  58			     pop ax
   5083	1A9A  24 0F		     outdig: and al,0fh
   5084	1A9C  04 90			     ADD AL,090h
   5085	1A9E  27			     DAA
   5086	1A9F  14 40			     ADC AL,040h
   5087	1AA1  27			     DAA
   5088	1AA2  B9 0001		     outc:   MOV CX,1
   5089	1AA5  B4 0E			     mov ah,0EH
   5090	1AA7  CD 10			     INT 010h
   5091	1AA9			     OUTC_1P:		;MOV  DI,OFFSET	toOUTC+2
   5092							; !!! NUT USER VAR
   5093				     ;	     CALL DOuVAR
   5094				     ;	      INC  PW [DI]
   5095	1AA9  FF 06 18AFr		     INC  PW TOOUTC+2
   5096	1AAD  C3			     RET
   5097	1AAE  E8 FFD9		     regout: call outWord
   5098	1AB1  B0 20		     space1: mov  al,' '
   5099	1AB3  EB ED			     jmp short outc
   5100	1AB5  B0 0D		     NEW_CR: MOV AL,0DH
   5101	1AB7  E8 FFE8			     CALL OUTC
   5102	1ABA  B0 0A			     MOV  AL,0AH
   5103	1ABC  EB E4			     JMP SHORT OUTC
   5104
   5105	1ABE  E8 E6D5		     XEX_TR: CALL POPR
   5106	1AC1  8B 46 00			     MOV  AX,[BP]
   5107	1AC4  A2 0286r			     MOV  pb _ex,al
   5108	1AC7  E9 E73F			     JMP  XRDROP
   5109
   5110	1ACA  A0 0286r		     JSR_TR: MOV  AL,PB	_ex
   5111					     TRACE_OFF
1  5112	1ACD  C6 06 0286r 97		     mov  PB  _EX,097h
   5113	1AD2  8D 6E FE			     LEA  BP,[BP-2]
   5114	1AD5  89 46 00			     MOV  [BP],AX
   5115	1AD8  E9 E73D			     JMP  JSR
   5116
   5117				       nf 'H.'
1  5118	      =MYCSEG:1ADB	     ppppp = $
1  5119				       dstr2 'H.',0
2  5120	1ADB  02		       db    ??0151-$-1+0
2  5121	1ADC  48 2E		       db    'H.'
2  5122	1ADE			     ??0151  label   byte
1  5123	1ADE  1A7Dr		       dw    qqqqq
1  5124	      =MYCSEG:1ADB	     qqqqq = ppppp
   5125	1AE0  1AE2r		     hdot  dw $+2
   5126	1AE2  93		       XCHG ax,bx
   5127	1AE3  E8 FFC8		       call regout
   5128				       dropreg
1  5129	1AE6  E9 E78C			      JMP XDROP
   5130
Turbo Assembler	 Version 3.2	    12/14/19 15:48:34	    Page 91
PT.asm



   5131				      NFI 'TRACE'
1  5132	      =MYCSEG:1AE9	     ppppp = $
1  5133				       dstr2 'TRACE',080h
2  5134	1AE9  85		       db    ??0152-$-1+080h
2  5135	1AEA  54 52 41 43 45	       db    'TRACE'
2  5136	1AEF			     ??0152  label   byte
1  5137	1AEF  1ADBr		       dw    qqqqq
1  5138	      =MYCSEG:1AE9	     qqqqq = ppppp
   5139	1AF1  0218r 0FF5r 1B12r	  +   DW JSR,APOS,_TR,TEXEC,_NTR,TEXIT
   5140	      0F61r 1B03r 08C3r
   5141
   5142				      NF '-TR'
1  5143	      =MYCSEG:1AFD	     ppppp = $
1  5144				       dstr2 '-TR',0
2  5145	1AFD  03		       db    ??0153-$-1+0
2  5146	1AFE  2D 54 52		       db    '-TR'
2  5147	1B01			     ??0153  label   byte
1  5148	1B01  1AE9r		       dw    qqqqq
1  5149	      =MYCSEG:1AFD	     qqqqq = ppppp
   5150	1B03  1B05r		     _NTR:  DW	$+2
   5151					  TRACE_OFF
1  5152	1B05  C6 06 0286r 97		     mov  PB  _EX,097h
   5153					  NEXT
1  5154	1B0A  E9 E778			     jmp  _next
   5155
   5156				      NF 'TR'
1  5157	      =MYCSEG:1B0D	     ppppp = $
1  5158				       dstr2 'TR',0
2  5159	1B0D  02		       db    ??0154-$-1+0
2  5160	1B0E  54 52		       db    'TR'
2  5161	1B10			     ??0154  label   byte
1  5162	1B10  1AFDr		       dw    qqqqq
1  5163	      =MYCSEG:1B0D	     qqqqq = ppppp
   5164	1B12  1B14r		     _TR: DW $+2
   5165					   TRACE_ON
1  5166	1B14  C6 06 0286r B9		     mov  PB _EX,0B9h
   5167					   NEXT
1  5168	1B19  E9 E769			     jmp  _next
   5169
   5170					   NF '(DEBUG'
1  5171	      =MYCSEG:1B1C	     ppppp = $
1  5172				       dstr2 '(DEBUG',0
2  5173	1B1C  06		       db    ??0155-$-1+0
2  5174	1B1D  28 44 45 42 55 47	       db    '(DEBUG'
2  5175	1B23			     ??0155  label   byte
1  5176	1B23  1B0Dr		       dw    qqqqq
1  5177	      =MYCSEG:1B1C	     qqqqq = ppppp
   5178	1B25  0218r		     ZZDBG DW JSR
   5179	1B27  19A7r 1AE0r 1AE0r	  +	     DW	  TDUP2,HDOT,HDOT,TPUSH,TPUSH,TDUP2,HDOT,HDOT
   5180	      1951r 1951r 19A7r	  +
   5181	      1AE0r 1AE0r
   5182	1B37  1948r 1948r 1A36r	  +	     DW	  TPOP,TPOP,TSPGT,HDOT
   5183	      1AE0r
   5184	1B3F  1971r 1AE0r 1969r	  +	     DW	  TRPGT,HDOT,TRAT,HDOT
   5185	      1AE0r
   5186	1B47  1B9Fr 199Er		     dw	  sav_Si,tdup
   5187	1B4B  0C04r 199Er 1AE0r		     dw	  ttwomi,tdup,hdot
Turbo Assembler	 Version 3.2	    12/14/19 15:48:34	    Page 92
PT.asm



   5188	1B51  1A50r 09D3r 1AE0r		     DW	  TSWAP,TFETCH,HDOT
   5189	1B57  09D3r 1AE0r 16E7r	  +	     dw	  tfetch,hdot,HERE,HDOT
   5190	      1AE0r
   5191	1B5F  1B9Br 1BC0r		     dw	  SAV_AX,v_ID
   5192	1B63  08C3r			   DW TEXIT
   5193
   5194	1B65			     debugerr:
   5195	1B65  89 36 1BA1r		     mov   pw saveSi,si
   5196	1B69  A3 1B9Dr			     mov   pw saveAX,AX
   5197					     TRACE_OFF
1  5198	1B6C  C6 06 0286r 97		     mov  PB  _EX,097h
   5199	1B71  E8 E7AB			     call  j4th
   5200	1B74  1B25r			     DW	  ZZDBG
   5201	1B76  095Dr			     dw	  tfromf
   5202	1B78  33 C0			     xor  ax,ax
   5203	1B7A  CD 16			     int  16h
   5204	1B7C  24 DF			     and  al,0dfh
   5205	1B7E  3C 53			     cmp  al,'S'
   5206	1B80  9C			     PUSHF
   5207	1B81  E8 FF31			     CALL NEW_CR
   5208					     TRACE_ON
1  5209	1B84  C6 06 0286r B9		     mov  PB _EX,0B9h
   5210	1B89  9D			     POPF
   5211	1B8A  75 05			     jne  @@2
   5212					     TRACE_OFF
1  5213	1B8C  C6 06 0286r 97		     mov  PB  _EX,097h
   5214	1B91  8B 36 1BA1r	     @@2:    mov  si,saveSi
   5215	1B95  8B 3E 1B9Dr		     mov  di,saveAX
   5216	1B99  FF 25			     jmp  [di]
   5217
   5218	1B9B  0668r		     sav_AX  dw	  DoCon
   5219	1B9D  0000		     saveAX  dw	  0
   5220
   5221	1B9F  0668r		     sav_si  dw	  DoCon
   5222	1BA1  0000		     saveSi  dw	  0
   5223
   5224				       nf    'ID.'
1  5225	      =MYCSEG:1BA3	     ppppp = $
1  5226				       dstr2 'ID.',0
2  5227	1BA3  03		       db    ??0156-$-1+0
2  5228	1BA4  49 44 2E		       db    'ID.'
2  5229	1BA7			     ??0156  label   byte
1  5230	1BA7  1B1Cr		       dw    qqqqq
1  5231	      =MYCSEG:1BA3	     qqqqq = ppppp
   5232	1BA9  0218r 0983r 1358r	  +  N_ID    DW	   JSR,Tcount,Tlit,31,Tand
   5233	      001F 0BA9r
   5234	1BB3  0CE9r 0D81r 08C3r	       DW TtYpE,Tspace,TexIt
   5235
   5236				       NF    '?ID.'
1  5237	      =MYCSEG:1BB9	     ppppp = $
1  5238				       dstr2 '?ID.',0
2  5239	1BB9  04		       db    ??0157-$-1+0
2  5240	1BBA  3F 49 44 2E	       db    '?ID.'
2  5241	1BBE			     ??0157  label   byte
1  5242	1BBE  1BA3r		       dw    qqqqq
1  5243	      =MYCSEG:1BB9	     qqqqq = ppppp
   5244	1BC0  0218r 0DADr 1A1Dr	  +  V_id:   dw	   jsr,cfname,TQDUP,EXIT0
Turbo Assembler	 Version 3.2	    12/14/19 15:48:34	    Page 93
PT.asm



   5245	      08BAr
   5246	1BC8  0BFDr 1A1Dr 08E5r	  +    DW tonemi,TQdup,tZbran,@@3
   5247	      1BDAr
   5248	1BD0  1358r 1BDCr 0BE2r	  +    dw tLIT,@@3+2,TPLUS,TFETCH,N_ID
   5249	      09D3r 1BA9r
   5250	1BDA  1BA9r 08C3r 164Dr	  +  @@3: dw N_ID,TEXIT,ADRTO,ADRAT
   5251	      1645r
   5252
   5253
   5254				     ; ---------------	  DEBUGER  ------------------^^^^^^^^^^^
   5255
   5256				       NF '''INIT'
1  5257	      =MYCSEG:1BE2	     ppppp = $
1  5258				       dstr2 '''INIT',0
2  5259	1BE2  05		       db    ??0158-$-1+0
2  5260	1BE3  27 49 4E 49 54	       db    '''INIT'
2  5261	1BE8			     ??0158  label   byte
1  5262	1BE8  1BB9r		       dw    qqqqq
1  5263	      =MYCSEG:1BE2	     qqqqq = ppppp
   5264	1BEA  052Er 0660r 0000	     INITW DW  ExecAt1,SETVAR,0
   5265
   5266					NF '_INIT'
1  5267	      =MYCSEG:1BF0	     ppppp = $
1  5268				       dstr2 '_INIT',0
2  5269	1BF0  05		       db    ??0159-$-1+0
2  5270	1BF1  5F 49 4E 49 54	       db    '_INIT'
2  5271	1BF6			     ??0159  label   byte
1  5272	1BF6  1BE2r		       dw    qqqqq
1  5273	      =MYCSEG:1BF0	     qqqqq = ppppp
   5274	1BF8  0218r 0FB5r 1BEAr	  +  _INIT:  DW	  JSR,TF83,INITW,TLIT,081H,TEVAL,TQUIT,TEXIT
   5275	      1358r 0081 0F1Br	  +
   5276	      10DFr 08C3r
   5277
   5278					NF '_ABORT'
1  5279	      =MYCSEG:1C08	     ppppp = $
1  5280				       dstr2 '_ABORT',0
2  5281	1C08  06		       db    ??015A-$-1+0
2  5282	1C09  5F 41 42 4F 52 54	       db    '_ABORT'
2  5283	1C0F			     ??015A  label   byte
1  5284	1C0F  1BF0r		       dw    qqqqq
1  5285	      =MYCSEG:1C08	     qqqqq = ppppp
   5286	1C11  0218r 1B03r 0FB5r	  +  _ABORT: dw	 JSR,_NTR,TF83,ZCLOSE,skobaL,erINI,TQUIT,TEXIT
   5287	      10BEr 17B5r 0FA9r	  +
   5288	      10DFr 08C3r
   5289
   5290	      =MYCSEG:1C21	     DtoP=$
   5291	      =MYCSEG:1C08	     lastw = ppppp
   5292
   5293				     ;	     db	  tbp	   ;brkpt
   5294	1C21			     MyCseg  ends
   5295					     end  Start
Turbo Assembler	 Version 3.2	    12/14/19 15:48:34	    Page 94
Symbol Table




Symbol Name		Type   Value			   Cref	(defined at #)

??0000			Byte   MYCSEG:0709		   1196	 #1198
??0001			Byte   MYCSEG:079A		   1280	 #1282
??0002			Byte   MYCSEG:07A7		   1292	 #1294
??0003			Byte   MYCSEG:07BC		   1305	 #1307
??0004			Byte   MYCSEG:07C8		   1315	 #1317
??0005			Byte   MYCSEG:07D4		   1325	 #1327
??0006			Byte   MYCSEG:0813		   1363	 #1366
??0007			Byte   MYCSEG:08B8		   1482	 #1484
??0008			Byte   MYCSEG:08C1		   1492	 #1494
??0009			Byte   MYCSEG:08CA		   1502	 #1504
??000A			Byte   MYCSEG:08D2		   1512	 #1514
??000B			Byte   MYCSEG:08DA		   1522	 #1524
??000C			Byte   MYCSEG:08E3		   1532	 #1534
??000D			Byte   MYCSEG:08EB		   1542	 #1544
??000E			Byte   MYCSEG:08F2		   1552	 #1554
??000F			Byte   MYCSEG:08FF		   1564	 #1566
??0010			Byte   MYCSEG:0909		   1574	 #1576
??0011			Byte   MYCSEG:0912		   1584	 #1586
??0012			Byte   MYCSEG:091A		   1594	 #1596
??0013			Byte   MYCSEG:0924		   1604	 #1606
??0014			Byte   MYCSEG:092C		   1614	 #1616
??0015			Byte   MYCSEG:0935		   1624	 #1626
??0016			Byte   MYCSEG:093F		   1634	 #1636
??0017			Byte   MYCSEG:0948		   1644	 #1646
??0018			Byte   MYCSEG:0952		   1654	 #1656
??0019			Byte   MYCSEG:095B		   1664	 #1666
??001A			Byte   MYCSEG:0966		   1674	 #1676
??001B			Byte   MYCSEG:096F		   1688	 #1690
??001C			Byte   MYCSEG:0978		   1698	 #1700
??001D			Byte   MYCSEG:0981		   1708	 #1710
??001E			Byte   MYCSEG:098A		   1718	 #1720
??001F			Byte   MYCSEG:0992		   1728	 #1730
??0020			Byte   MYCSEG:099B		   1739	 #1741
??0021			Byte   MYCSEG:09A5		   1749	 #1751
??0022			Byte   MYCSEG:09AC		   1759	 #1761
??0023			Byte   MYCSEG:09B4		   1769	 #1771
??0024			Byte   MYCSEG:09BE		   1779	 #1781
??0025			Byte   MYCSEG:09C4		   1788	 #1790
??0026			Byte   MYCSEG:09CB		   1797	 #1799
??0027			Byte   MYCSEG:09D1		   1806	 #1808
??0028			Byte   MYCSEG:09D8		   1815	 #1817
??0029			Byte   MYCSEG:09DF		   1828	 #1830
??002A			Byte   MYCSEG:09E6		   1838	 #1840
??002B			Byte   MYCSEG:09EE		   1848	 #1850
??002C			Byte   MYCSEG:09F7		   1857	 #1859
??002D			Byte   MYCSEG:0A01		   1866	 #1868
??002E			Byte   MYCSEG:0A0A		   1875	 #1877
??002F			Byte   MYCSEG:0A14		   1884	 #1886
??0030			Byte   MYCSEG:0A1D		   1893	 #1895
??0031			Byte   MYCSEG:0A27		   1902	 #1904
??0032			Byte   MYCSEG:0A30		   1911	 #1913
??0033			Byte   MYCSEG:0A3A		   1920	 #1922
??0034			Byte   MYCSEG:0A42		   1929	 #1931
??0035			Byte   MYCSEG:0A4B		   1938	 #1940
Turbo Assembler	 Version 3.2	    12/14/19 15:48:34	    Page 95
Symbol Table



??0036			Byte   MYCSEG:0A54		   1947	 #1949
??0037			Byte   MYCSEG:0A5C		   1956	 #1958
??0038			Byte   MYCSEG:0A63		   1965	 #1967
??0039			Byte   MYCSEG:0A6D		   1975	 #1977
??003A			Byte   MYCSEG:0A78		   1984	 #1986
??003B			Byte   MYCSEG:0A81		   1993	 #1995
??003C			Byte   MYCSEG:0A8A		   2002	 #2004
??003D			Byte   MYCSEG:0A94		   2012	 #2014
??003E			Byte   MYCSEG:0A9E		   2022	 #2024
??003F			Byte   MYCSEG:0AAA		   2032	 #2034
??0040			Byte   MYCSEG:0AB4		   2042	 #2044
??0041			Byte   MYCSEG:0ABD		   2052	 #2054
??0042			Byte   MYCSEG:0AC7		   2062	 #2064
??0043			Byte   MYCSEG:0AD2		   2073	 #2075
??0044			Byte   MYCSEG:0ADF		   2084	 #2086
??0045			Byte   MYCSEG:0AE9		   2094	 #2096
??0046			Byte   MYCSEG:0AF1		   2104	 #2106
??0047			Byte   MYCSEG:0AF8		   2114	 #2116
??0048			Byte   MYCSEG:0B00		   2124	 #2126
??0049			Byte   MYCSEG:0B07		   2134	 #2136
??004A			Byte   MYCSEG:0B12		   2147	 #2149
??004B			Byte   MYCSEG:0B1E		   2157	 #2159
??004C			Byte   MYCSEG:0B28		   2167	 #2169
??004D			Byte   MYCSEG:0B2F		   2177	 #2179
??004E			Byte   MYCSEG:0B38		   2187	 #2189
??004F			Byte   MYCSEG:0B40		   2197	 #2199
??0050			Byte   MYCSEG:0B46		   2207	 #2209
??0051			Byte   MYCSEG:0B4D		   2217	 #2219
??0052			Byte   MYCSEG:0B53		   2227	 #2229
??0053			Byte   MYCSEG:0B61		   2238	 #2240
??0054			Byte   MYCSEG:0B6A		   2248	 #2250
??0055			Byte   MYCSEG:0B74		   2258	 #2260
??0056			Byte   MYCSEG:0B7E		   2268	 #2270
??0057			Byte   MYCSEG:0B85		   2278	 #2280
??0058			Byte   MYCSEG:0B8C		   2288	 #2290
??0059			Byte   MYCSEG:0B97		   2298	 #2300
??005A			Byte   MYCSEG:0B9F		   2308	 #2310
??005B			Byte   MYCSEG:0BA7		   2318	 #2320
??005C			Byte   MYCSEG:0BAF		   2328	 #2330
??005D			Byte   MYCSEG:0BB7		   2338	 #2340
??005E			Byte   MYCSEG:0BC0		   2348	 #2350
??005F			Byte   MYCSEG:0BC8		   2357	 #2359
??0060			Byte   MYCSEG:0BD3		   2366	 #2368
??0061			Byte   MYCSEG:0BDA		   2375	 #2377
??0062			Byte   MYCSEG:0BE0		   2384	 #2386
??0063			Byte   MYCSEG:0BE7		   2393	 #2395
??0064			Byte   MYCSEG:0BED		   2402	 #2404
??0065			Byte   MYCSEG:0BF4		   2411	 #2413
??0066			Byte   MYCSEG:0BFB		   2420	 #2422
??0067			Byte   MYCSEG:0C02		   2429	 #2431
??0068			Byte   MYCSEG:0C09		   2438	 #2440
??0069			Byte   MYCSEG:0C10		   2447	 #2449
??006A			Byte   MYCSEG:0C1B		   2461	 #2463
??006B			Byte   MYCSEG:0C2A		   2473	 #2475
??006C			Byte   MYCSEG:0C33		   2483	 #2485
??006D			Byte   MYCSEG:0C4A		   2495	 #2497
??006E			Byte   MYCSEG:0C59		   2506	 #2508
Turbo Assembler	 Version 3.2	    12/14/19 15:48:34	    Page 96
Symbol Table



??006F			Byte   MYCSEG:0C88		   2521	 #2523
??0070			Byte   MYCSEG:0C94		   2531	 #2533
??0071			Byte   MYCSEG:0CA4		   2542	 #2544
??0072			Byte   MYCSEG:0CC1		   2552	 #2555
??0073			Byte   MYCSEG:0CC9		   2561	 #2563
??0074			Byte   MYCSEG:0CD8		   2572	 #2574
??0075			Byte   MYCSEG:0CE7		   2583	 #2585
??0076			Byte   MYCSEG:0D00		   2595	 #2597
??0077			Byte   MYCSEG:0D71		   2627	 #2629
??0078			Byte   MYCSEG:0D7F		   2639	 #2641
??0079			Byte   MYCSEG:0D88		   2649	 #2651
??007A			Byte   MYCSEG:0D90		   2659	 #2661
??007B			Byte   MYCSEG:0D9A		   2669	 #2671
??007C			Byte   MYCSEG:0DA3		   2679	 #2681
??007D			Byte   MYCSEG:0DAB		   2692	 #2694
??007E			Byte   MYCSEG:0DBF		   2710	 #2712
??007F			Byte   MYCSEG:0DD1		   2721	 #2723
??0080			Byte   MYCSEG:0DE7		   2732	 #2734
??0081			Byte   MYCSEG:0DF3		   2742	 #2744
??0082			Byte   MYCSEG:0E0B		   2755	 #2757
??0083			Byte   MYCSEG:0E21		   2766	 #2768
??0084			Byte   MYCSEG:0E2C		   2775	 #2777
??0085			Byte   MYCSEG:0E45		   2787	 #2789
??0086			Byte   MYCSEG:0E65		   2801	 #2803
??0087			Byte   MYCSEG:0E7A		   2812	 #2814
??0088			Byte   MYCSEG:0EA4		   2828	 #2830
??0089			Byte   MYCSEG:0ECC		   2845	 #2847
??008A			Byte   MYCSEG:0EF4		   2860	 #2862
??008B			Byte   MYCSEG:0F19		   2875	 #2877
??008C			Byte   MYCSEG:0F30		   2887	 #2889
??008D			Byte   MYCSEG:0F45		   2899	 #2901
??008E			Byte   MYCSEG:0F52		   2910	 #2912
??008F			Byte   MYCSEG:0F5F		   2920	 #2922
??0090			Byte   MYCSEG:0F69		   2930	 #2932
??0091			Byte   MYCSEG:0F74		   2940	 #2942
??0092			Byte   MYCSEG:0F8C		   2952	 #2954
??0093			Byte   MYCSEG:0F98		   2962	 #2964
??0094			Byte   MYCSEG:0FA7		   2973	 #2975
??0095			Byte   MYCSEG:0FB3		   2983	 #2985
??0096			Byte   MYCSEG:0FE5		   3001	 #3003
??0097			Byte   MYCSEG:0FF3		   3012	 #3014
??0098			Byte   MYCSEG:1003		   3023	 #3025
??0099			Byte   MYCSEG:100C		   3033	 #3035
??009A			Byte   MYCSEG:1038		   3050	 #3052
??009B			Byte   MYCSEG:1047		   3060	 #3062
??009C			Byte   MYCSEG:105B		   3071	 #3073
??009D			Byte   MYCSEG:1066		   3081	 #3083
??009E			Byte   MYCSEG:1075		   3092	 #3094
??009F			Byte   MYCSEG:1091		   3104	 #3107
??00A0			Byte   MYCSEG:109C		   3115	 #3117
??00A1			Byte   MYCSEG:10BC		   3129	 #3131
??00A2			Byte   MYCSEG:10D4		   3142	 #3144
??00A3			Byte   MYCSEG:10DD		   3152	 #3154
??00A4			Byte   MYCSEG:10ED		   3163	 #3165
??00A5			Byte   MYCSEG:1115		   3178	 #3180
??00A6			Byte   MYCSEG:1134		   3187	 #3191
??00A7			Byte   MYCSEG:1144		   3198	 #3200
Turbo Assembler	 Version 3.2	    12/14/19 15:48:34	    Page 97
Symbol Table



??00A8			Byte   MYCSEG:1154		   3209	 #3211
??00A9			Byte   MYCSEG:1161		   3219	 #3221
??00AA			Byte   MYCSEG:1193		   3234	 #3237
??00AB			Byte   MYCSEG:119D		   3243	 #3245
??00AC			Byte   MYCSEG:11A9		   3255	 #3257
??00AD			Byte   MYCSEG:11B4		   3266	 #3268
??00AE			Byte   MYCSEG:11C0		   3277	 #3279
??00AF			Byte   MYCSEG:11C8		   3290	 #3292
??00B0			Byte   MYCSEG:11DC		   3301	 #3303
??00B1			Byte   MYCSEG:11EC		   3312	 #3314
??00B2			Byte   MYCSEG:11FD		   3323	 #3325
??00B3			Byte   MYCSEG:120B		   3333	 #3335
??00B4			Byte   MYCSEG:1231		   3350	 #3352
??00B5			Byte   MYCSEG:123C		   3360	 #3362
??00B6			Byte   MYCSEG:1247		   3370	 #3372
??00B7			Byte   MYCSEG:1253		   3380	 #3382
??00B8			Byte   MYCSEG:1262		   3391	 #3393
??00B9			Byte   MYCSEG:1275		   3403	 #3405
??00BA			Byte   MYCSEG:1291		   3417	 #3419
??00BB			Byte   MYCSEG:129E		   3428	 #3430
??00BC			Byte   MYCSEG:12AE		   3439	 #3441
??00BD			Byte   MYCSEG:12C0		   3450	 #3452
??00BE			Byte   MYCSEG:12F8		   3469	 #3471
??00BF			Byte   MYCSEG:1308		   3480	 #3482
??00C0			Byte   MYCSEG:131D		   3491	 #3493
??00C1			Byte   MYCSEG:1337		   3508	 #3510
??00C2			Byte   MYCSEG:1346		   3519	 #3521
??00C3			Byte   MYCSEG:1356		   3530	 #3532
??00C4			Byte   MYCSEG:135F		   3540	 #3542
??00C5			Byte   MYCSEG:1366		   3550	 #3552
??00C6			Byte   MYCSEG:1374		   3561	 #3563
??00C7			Byte   MYCSEG:1384		   3572	 #3574
??00C8			Byte   MYCSEG:1391		   3583	 #3585
??00C9			Byte   MYCSEG:139F		   3594	 #3596
??00CA			Byte   MYCSEG:13AC		   3604	 #3606
??00CB			Byte   MYCSEG:13BC		   3615	 #3617
??00CC			Byte   MYCSEG:13CA		   3625	 #3627
??00CD			Byte   MYCSEG:13DA		   3636	 #3638
??00CE			Byte   MYCSEG:13EC		   3662	 #3664
??00CF			Byte   MYCSEG:13FC		   3673	 #3675
??00D0			Byte   MYCSEG:1407		   3683	 #3685
??00D1			Byte   MYCSEG:1413		   3693	 #3695
??00D2			Byte   MYCSEG:141E		   3703	 #3705
??00D3			Byte   MYCSEG:142B		   3713	 #3715
??00D4			Byte   MYCSEG:1439		   3723	 #3725
??00D5			Byte   MYCSEG:1445		   3733	 #3735
??00D6			Byte   MYCSEG:1451		   3743	 #3745
??00D7			Byte   MYCSEG:145F		   3753	 #3755
??00D8			Byte   MYCSEG:146A		   3763	 #3765
??00D9			Byte   MYCSEG:147B		   3774	 #3776
??00DA			Byte   MYCSEG:148C		   3785	 #3787
??00DB			Byte   MYCSEG:149E		   3799	 #3801
??00DC			Byte   MYCSEG:14B0		   3810	 #3812
??00DD			Byte   MYCSEG:14C4		   3821	 #3823
??00DE			Byte   MYCSEG:14D9		   3832	 #3835
??00DF			Byte   MYCSEG:14E7		   3843	 #3845
??00E0			Byte   MYCSEG:1509		   3857	 #3859
Turbo Assembler	 Version 3.2	    12/14/19 15:48:34	    Page 98
Symbol Table



??00E1			Byte   MYCSEG:151A		   3868	 #3870
??00E2			Byte   MYCSEG:1538		   3882	 #3884
??00E3			Byte   MYCSEG:1544		   3893	 #3895
??00E4			Byte   MYCSEG:154F		   3904	 #3906
??00E5			Byte   MYCSEG:1560		   3915	 #3917
??00E6			Byte   MYCSEG:1570		   3926	 #3928
??00E7			Byte   MYCSEG:1584		   3937	 #3939
??00E8			Byte   MYCSEG:1595		   3948	 #3950
??00E9			Byte   MYCSEG:15A8		   3959	 #3961
??00EA			Byte   MYCSEG:15B9		   3970	 #3972
??00EB			Byte   MYCSEG:15C5		   3981	 #3983
??00EC			Byte   MYCSEG:15D5		   3992	 #3994
??00ED			Byte   MYCSEG:15E0		   4002	 #4004
??00EE			Byte   MYCSEG:15EE		   4012	 #4014
??00EF			Byte   MYCSEG:15F8		   4022	 #4024
??00F0			Byte   MYCSEG:160C		   4033	 #4036
??00F1			Byte   MYCSEG:1619		   4045	 #4047
??00F2			Byte   MYCSEG:1625		   4056	 #4058
??00F3			Byte   MYCSEG:1634		   4067	 #4069
??00F4			Byte   MYCSEG:1648		   4081	 #4083
??00F5			Byte   MYCSEG:1650		   4093	 #4095
??00F6			Byte   MYCSEG:165D		   4104	 #4106
??00F7			Byte   MYCSEG:1675		   4117	 #4119
??00F8			Byte   MYCSEG:167F		   4128	 #4130
??00F9			Byte   MYCSEG:1689		   4139	 #4141
??00FA			Byte   MYCSEG:1692		   4150	 #4152
??00FB			Byte   MYCSEG:16A6		   4161	 #4163
??00FC			Byte   MYCSEG:16B2		   4171	 #4173
??00FD			Byte   MYCSEG:16BF		   4181	 #4183
??00FE			Byte   MYCSEG:16CA		   4192	 #4194
??00FF			Byte   MYCSEG:16D8		   4202	 #4204
??0100			Byte   MYCSEG:16E5		   4212	 #4214
??0101			Byte   MYCSEG:16F6		   4224	 #4226
??0102			Byte   MYCSEG:1722		   4241	 #4243
??0103			Byte   MYCSEG:173A		   4254	 #4256
??0104			Byte   MYCSEG:1744		   4264	 #4266
??0105			Byte   MYCSEG:1756		   4275	 #4277
??0106			Byte   MYCSEG:1769		   4286	 #4289
??0107			Byte   MYCSEG:1775		   4298	 #4300
??0108			Byte   MYCSEG:1785		   4309	 #4311
??0109			Byte   MYCSEG:179B		   4321	 #4323
??010A			Byte   MYCSEG:17AC		   4333	 #4335
??010B			Byte   MYCSEG:17B3		   4344	 #4346
??010C			Byte   MYCSEG:17C0		   4360	 #4362
??010D			Byte   MYCSEG:17CD		   4370	 #4372
??010E			Byte   MYCSEG:17D9		   4380	 #4382
??010F			Byte   MYCSEG:17E7		   4390	 #4392
??0110			Byte   MYCSEG:17F5		   4400	 #4402
??0111			Byte   MYCSEG:1802		   4410	 #4412
??0112			Byte   MYCSEG:1811		   4421	 #4423
??0113			Byte   MYCSEG:1820		   4432	 #4434
??0114			Byte   MYCSEG:182F		   4443	 #4445
??0115			Byte   MYCSEG:1841		   4454	 #4456
??0116			Byte   MYCSEG:1851		   4465	 #4467
??0117			Byte   MYCSEG:185D		   4476	 #4478
??0118			Byte   MYCSEG:1869		   4487	 #4489
??0119			Byte   MYCSEG:1875		   4498	 #4500
Turbo Assembler	 Version 3.2	    12/14/19 15:48:34	    Page 99
Symbol Table



??011A			Byte   MYCSEG:1883		   4509	 #4511
??011B			Byte   MYCSEG:1890		   4521	 #4523
??011C			Byte   MYCSEG:189C		   4532	 #4534
??011D			Byte   MYCSEG:18A9		   4543	 #4545
??011E			Byte   MYCSEG:18B5		   4554	 #4556
??011F			Byte   MYCSEG:18C1		   4565	 #4567
??0120			Byte   MYCSEG:18CC		   4579	 #4581
??0121			Byte   MYCSEG:18D7		   4591	 #4593
??0122			Byte   MYCSEG:18E4		   4603	 #4605
??0123			Byte   MYCSEG:18EF		   4615	 #4617
??0124			Byte   MYCSEG:18F8		   4630	 #4632
??0125			Byte   MYCSEG:1901		   4640	 #4642
??0126			Byte   MYCSEG:190A		   4650	 #4652
??0127			Byte   MYCSEG:1913		   4660	 #4662
??0128			Byte   MYCSEG:191C		   4670	 #4672
??0129			Byte   MYCSEG:1922		   4680	 #4682
??012A			Byte   MYCSEG:1928		   4690	 #4692
??012B			Byte   MYCSEG:1930		   4700	 #4702
??012C			Byte   MYCSEG:193C		   4710	 #4712
??012D			Byte   MYCSEG:1946		   4723	 #4725
??012E			Byte   MYCSEG:194F		   4734	 #4736
??012F			Byte   MYCSEG:1957		   4745	 #4747
??0130			Byte   MYCSEG:1960		   4755	 #4757
??0131			Byte   MYCSEG:1967		   4764	 #4766
??0132			Byte   MYCSEG:196F		   4774	 #4776
??0133			Byte   MYCSEG:1977		   4784	 #4786
??0134			Byte   MYCSEG:1980		   4794	 #4796
??0135			Byte   MYCSEG:198A		   4803	 #4805
??0136			Byte   MYCSEG:1994		   4812	 #4814
??0137			Byte   MYCSEG:199C		   4821	 #4823
??0138			Byte   MYCSEG:19A5		   4830	 #4832
??0139			Byte   MYCSEG:19AE		   4839	 #4841
??013A			Byte   MYCSEG:19B6		   4848	 #4850
??013B			Byte   MYCSEG:19BC		   4863	 #4865
??013C			Byte   MYCSEG:19C5		   4873	 #4875
??013D			Byte   MYCSEG:19CF		   4883	 #4885
??013E			Byte   MYCSEG:19D9		   4893	 #4895
??013F			Byte   MYCSEG:19E0		   4902	 #4904
??0140			Byte   MYCSEG:19EB		   4912	 #4914
??0141			Byte   MYCSEG:19F6		   4922	 #4924
??0142			Byte   MYCSEG:19FF		   4932	 #4934
??0143			Byte   MYCSEG:1A08		   4941	 #4943
??0144			Byte   MYCSEG:1A12		   4950	 #4952
??0145			Byte   MYCSEG:1A1B		   4959	 #4961
??0146			Byte   MYCSEG:1A23		   4968	 #4970
??0147			Byte   MYCSEG:1A2C		   4977	 #4979
??0148			Byte   MYCSEG:1A34		   4986	 #4988
??0149			Byte   MYCSEG:1A3C		   4995	 #4997
??014A			Byte   MYCSEG:1A45		   5004	 #5006
??014B			Byte   MYCSEG:1A4E		   5013	 #5015
??014C			Byte   MYCSEG:1A58		   5022	 #5024
??014D			Byte   MYCSEG:1A61		   5031	 #5033
??014E			Byte   MYCSEG:1A6F		   5041	 #5043
??014F			Byte   MYCSEG:1A79		   5052	 #5054
??0150			Byte   MYCSEG:1A82		   5062	 #5064
??0151			Byte   MYCSEG:1ADE		   5120	 #5122
??0152			Byte   MYCSEG:1AEF		   5134	 #5136
Turbo Assembler	 Version 3.2	    12/14/19 15:48:34	    Page 100
Symbol Table



??0153			Byte   MYCSEG:1B01		   5145	 #5147
??0154			Byte   MYCSEG:1B10		   5159	 #5161
??0155			Byte   MYCSEG:1B23		   5173	 #5175
??0156			Byte   MYCSEG:1BA7		   5227	 #5229
??0157			Byte   MYCSEG:1BBE		   5239	 #5241
??0158			Byte   MYCSEG:1BE8		   5259	 #5261
??0159			Byte   MYCSEG:1BF6		   5269	 #5271
??015A			Byte   MYCSEG:1C0F		   5281	 #5283
??DATE			Text   "12/14/19"
??FILENAME		Text   "PT	"
??TIME			Text   "15:48:34"
??VERSION		Number 0314
?NONAM1			Near   MYCSEG:0521		   #861	 893
@@1			Near   MYCSEG:0192		   243	#245
@@1			Near   MYCSEG:03D8		   636	#640
@@1			Near   MYCSEG:045E		   729	#731
@@1			Near   MYCSEG:049E		   766	#773
@@1			Near   MYCSEG:04B1		   781	#785
@@1			Near   MYCSEG:04F8		   831	#833
@@1			Near   MYCSEG:053E		   880	#884
@@1			Near   MYCSEG:056D		   #911	 920  937
@@1			Near   MYCSEG:05C4		   #979	 984
@@1			Near   MYCSEG:05FC		   1014	 #1017
@@1			Near   MYCSEG:065D		   1073	 #1076
@@1			Near   MYCSEG:069B		   #1114  1124
@@1			Near   MYCSEG:0747		   1231	 #1233
@@1			Near   MYCSEG:0753		   1239	 #1241
@@1			Near   MYCSEG:0792		   1262	 1266  #1274
@@1			Near   MYCSEG:087D		   1431	 #1435
@@1			Near   MYCSEG:0CEF		   #2589
@@1			Near   MYCSEG:0D0C		   #2602  2615	2621
@@1			Near   MYCSEG:0E98		   2818	 2821  #2823
@@1			Near   MYCSEG:1024		   3041	 #3043
@@1			Word   MYCSEG:10C0		   3135	 #3135
@@1			Near   MYCSEG:1181		   3229	 #3230
@@1			Near   MYCSEG:126E		   3396	 #3398
@@1			Near   MYCSEG:14FD		   3848	 #3852
@@15			Near   MYCSEG:0D2C		   2605	 #2610
@@16			Near   MYCSEG:0D3E		   2610	 #2614
@@2			Near   MYCSEG:047C		   #750	 754
@@2			Near   MYCSEG:04AA		   #782	 784
@@2			Near   MYCSEG:0575		   914	#918
@@2			Near   MYCSEG:05CF		   #985	 992
@@2			Near   MYCSEG:0600		   #1020  1035
@@2			Near   MYCSEG:06AC		   #1123
@@2			Near   MYCSEG:0793		   1259	 1264  #1275
@@2			Near   MYCSEG:0871		   #1428  1434
@@2			Near   MYCSEG:0CF5		   2588	 #2590
@@2			Word   MYCSEG:10AC		   3120	 #3123
@@2			Word   MYCSEG:10CC		   3135	 #3137
@@2			Near   MYCSEG:1B91		   5211	 #5214
@@20			Near   MYCSEG:0D5E		   2614	 #2620
@@21			Near   MYCSEG:0D62		   2609	 2619  #2621
@@22			Near   MYCSEG:0D66		   2600	 #2622
@@3			Near   MYCSEG:0485		   749	#755
@@3			Near   MYCSEG:0578		   #921	 924
@@3			Near   MYCSEG:05E0		   982	#995
Turbo Assembler	 Version 3.2	    12/14/19 15:48:34	    Page 101
Symbol Table



@@3			Near   MYCSEG:060F		   1023	 #1028
@@3			Near   MYCSEG:06B1		   1122	 #1128
@@3			Near   MYCSEG:0790		   1268	 #1273
@@3			Near   MYCSEG:122B		   3339	 #3345
@@3			Near   MYCSEG:1BDA		   5246	 5248  #5250
@@4			Near   MYCSEG:057E		   #926	 936
@@4			Near   MYCSEG:05E2		   990	994  #996
@@4			Near   MYCSEG:06AE		   1118	 #1125
@@4			Near   MYCSEG:0763		   #1253  1270
@@5			Near   MYCSEG:058C		   930	#933
@@7			Near   MYCSEG:0594		   932	#938  941
@@8			Near   MYCSEG:05A1		   917	#949
@CPU			Text   0101H
@CURSEG			Text   MYCSEG			   #179
@FILENAME		Text   PT
@MYARY			Near   MYCSEG:02F0		   #489	 5046
@WORDSIZE		Text   2			   #179
ABORT			Near   MYCSEG:10D6		   #3147  3344
ACREATE			Near   MYCSEG:15AA		   3408	 3455  #3964
ACTOI			Word   MYCSEG:1156		   2990	 3123  #3214
ACTOI2			Near   MYCSEG:1163		   2990	 3214  #3224
ADRAT			Near   MYCSEG:1645		   #4077  5250
ADRP1			Near   MYCSEG:0883		   #1440  1445	1449  2443
ADRP2			Near   MYCSEG:0882		   648	907  #1439  1451  2452
ADRP3			Near   MYCSEG:0567		   #906
ADRTO			Near   MYCSEG:164D		   #4089  5250
AFORTH			Near   MYCSEG:0FE7		   2512	 2988  2988  #3006  4365  4460	4471
AHEAD3			Near   MYCSEG:1714		   4229	 #4235
AHEAD4			Near   MYCSEG:1724		   3485	 4235  #4246
AHEADER			Near   MYCSEG:16F8		   3462	 3964  3986  #4229
AINT			Near   MYCSEG:1093		   2806	 2880  2892  2993  #3110  3120	3123
AINT1			Near   MYCSEG:109E		   2993	 3110  #3120
APOS			Word   MYCSEG:0FF5		   #3017  3459	3588  3768  4111  5139
APOS0			Word   MYCSEG:0F76		   #2945  3017	3498
APOSADRC		Word   MYCSEG:1393		   #3588  3599
AQEXEC			Word   MYCSEG:0F6B		   #2935
ASMUDGE			Word   MYCSEG:161B		   3986	 4027  #4050
ATHERE			Word   MYCSEG:16EB		   3804	 #4219
ATTR			Byte   MYCSEG:1A86		   1410	 #5068
BASE@			Word   MYCSEG:18E6		   3226	 #4608
BCOMMA			Word   MYCSEG:12A0		   3396	 #3433
BLC			Word   MYCSEG:1903		   2604	 3086  #4645
BLK@			Word   MYCSEG:186B		   2726	 2747  2760  2851  3097	 3341  #4492
BS			Word   MYCSEG:18FA		   2614	 2617  3183  #4635
BYE			Word   MYCSEG:08D4		   #1517
CALL_D2			Near   MYCSEG:04E7		   #822	 2567
CDOES			Word   MYCSEG:193E		   3931	 3942  #4715
CFA			Near   MYCSEG:16B4		   3862	 #4176	4231  4233  4235
CFCH_P1			Near   MYCSEG:088C		   #1446  2109
CFNAME			Word   MYCSEG:0DAD		   #2697  5244
CNT_GT0			Near   MYCSEG:0716		   #1205  1213	1221
CODE?			Word   MYCSEG:1551		   #3909  3920	3931
COLON			Word   MYCSEG:15C7		   #3986
COMPIL			Near   MYCSEG:1663		   #4110  4122	4133  4144
COMPWV			Word   MYCSEG:0108		   #190	 901
CONT@			Word   MYCSEG:1853		   3043	 #4470
CONVN			Near   MYCSEG:063D		   1019	 1030  #1057  1064  1066
Turbo Assembler	 Version 3.2	    12/14/19 15:48:34	    Page 102
Symbol Table



CR			Word   MYCSEG:1915		   2610	 2780  #4665
CRSP			Word   MYCSEG:010A		   #192
CRSS			Word   MYCSEG:010C		   #193
CSP@			Word   MYCSEG:18B7		   #4559
CURR@			Word   MYCSEG:1843		   4061	 4247  #4459
CURSIZE			Near   MYCSEG:0829		   #1384  2466
DADR			Word   MYCSEG:16CC		   1152	 2995  #4197
DBL@			Word   MYCSEG:189E		   3848	 #4537
DDD			Near   MYCSEG:02B3		   #440
DEBUGERR		Near   MYCSEG:1B65		   412	#5194
DEBUGV			Word   MYCSEG:0106		   #189
DECIM			Word   MYCSEG:119F		   2988	 #3248
DERR			Word   MYCSEG:0C3B		   #2489
DIGIT?			Near   MYCSEG:0627		   #1045  1058
DO2CON			Near   MYCSEG:02FB		   #496
DO2CON0			Near   MYCSEG:02FC		   #497
DO2CON1			Near   MYCSEG:02FA		   #495
DO2CON2			Near   MYCSEG:02F9		   #494
DOCOLON			Word   MYCSEG:15D7		   3975	 3986  #3997
DOCON			Near   MYCSEG:0668		   #1085  4635	4645  4655  4665  4695	4705  4715  5218  5221
DOCON0			Near   MYCSEG:0669		   #1086  1091	1094
DOCON1			Near   MYCSEG:0667		   #1084  2500	2632  4176  4186  4197	4365  4375  4385  4395	4405  4459+
							   4470	 4481  4492  4503  4514	 4526  4537  4548  4559	 4570
DOCON2			Near   MYCSEG:0666		   #1083  2488	2833  4217  4269  4415	4426  4437  4448
DODEF			Near   MYCSEG:0DB6		   #2703  3006
DOIMMD			Near   MYCSEG:1283		   3328	 3355  3375  #3410  3599  3620	3678  3688  3698  3708	3718  3748+
							   3758	 3997  4007  4017
DOLIT			Near   MYCSEG:15F0		   3826	 #4017
DOSEMI			Word   MYCSEG:15E2		   #4007  4027
DOUVAR			Near   MYCSEG:068A		   1089	 1096  1098  #1104
DOUVAR0			Near   MYCSEG:068D		   #1105
DOUVAR1			Near   MYCSEG:0689		   1093	 #1103
DOUVAR2			Near   MYCSEG:0688		   #1102
DOVAR			Near   MYCSEG:0272		   #395	 1201  1285  2488  3006	 3964  4207  4219  4269	 4415  4426  4437 +
							   4448	 5067
DOVAR1			Near   MYCSEG:0271		   #394
DOVAR2			Near   MYCSEG:0270		   #393	 2511
DOVARZ			Near   MYCSEG:0281		   395	#404
DOVOC			Near   MYCSEG:0DAF		   #2699  3006
DTOP			Number MYCSEG:1C21		   4219	 #5290
DUPLICA			Word   MYCSEG:16A8		   #4166  4246
EOF?			Near   MYCSEG:0D73		   #2632  3171
ERINI			Word   MYCSEG:0FA9		   #2978  5286
EXECAT			Near   MYCSEG:052F		   #873	 885  3110
EXECAT0			Near   MYCSEG:0530		   #874
EXECAT1			Near   MYCSEG:052E		   #872	 883  2978  3055  3214	3838  4166  5264
EXECAT2			Near   MYCSEG:052D		   #871	 1201
EXIT0			Word   MYCSEG:08BA		   #1487  3826	3850  5244
FCH_P2			Near   MYCSEG:0893		   #1450  2119
FILEIO			Near   MYCSEG:07CA		   #1320  2750
FRST			Number -1010			   #178	 197  198  199	4395
GETCURS			Near   MYCSEG:0835		   #1392  2468
GET_CURS		Word   MYCSEG:0C21		   #2468
HANDLES			Word   MYCSEG:0EAC		   1204	 #2834
HDOT			Word   MYCSEG:1AE0		   #5125  5179	5179  5179  5179  5182	5184  5184  5187  5188	5189  5189
HDRS?			Word   MYCSEG:1746		   4229	 4231  #4269  4280  4292  4303
HERE			Word   MYCSEG:16E7		   3097	 3306  3341  3513  3524	 3577  3609  3630  3728	 3875  3909  3975 +
Turbo Assembler	 Version 3.2	    12/14/19 15:48:34	    Page 103
Symbol Table



							   4155	 #4217	4231  4235  4247  5189
HND			Near   MYCSEG:0EA6		   2818	 2818  2820  #2833  3135  3183	3192
IMM			Near   MYCSEG:160E		   3408	 #4039
INITF1			Near   MYCSEG:014E		   186	#204
INITV			Word   MYCSEG:0102		   #187	 206
INITW			Word   MYCSEG:1BEA		   #5264  5274
IO?			Word   MYCSEG:0DF5		   #2747  3168	3192  3203
IO?2			Word   MYCSEG:0E03		   2747	 #2750
IOV			Word   MYCSEG:079C		   #1285  1299
J4TH			Near   MYCSEG:031F		   #520	 5199
JEMIT			Word   MYCSEG:07A0		   #1287  1335
JKEY			Word   MYCSEG:079E		   #1286  1356
JSR			Near   MYCSEG:0218		   #339	 1297  2232  2536  2577	 2715  2726  2737  2747	 2760  2780  2806 +
							   2817	 2850  2865  2880  2892	 2945  2967  3017  3038	 3086  3134  3168 +
							   3183	 3295  3306  3317  3365	 3385  3396  3408  3422	 3433  3444  3455 +
							   3474	 3485  3496  3513  3524	 3555  3566  3577  3588	 3609  3630  3641 +
							   3667	 3768  3779  3790  3804	 3815  3826  3848  3862	 3873  3909  3920 +
							   3931	 3942  3953  3964  3975	 3986  3997  4027  4061	 4072  4109  4155 +
							   4246	 4280  4292  4303  4314	 4326  5115  5139  5178	 5232  5244  5274 +
							   5286
JSR1			Near   MYCSEG:0217		   #338
JSR2			Near   MYCSEG:0216		   #337
JSR3			Near   MYCSEG:0215		   #336
JSR4			Near   MYCSEG:0214		   #335
JSR_TR			Near   MYCSEG:1ACA		   1559	 2547  2588  2600  2792	 2988  3065  3097  3203	 3224  3338  4229 +
							   #5110
LASTCH			Word   MYCSEG:0D77		   1254	 1255  1260  #2634
LASTW			Number MYCSEG:1C08		   3006	 #5291
LATEST			Word   MYCSEG:1627		   #4061  4074
LCHK1			Near   MYCSEG:0342		   540	#546
LCHK2			Near   MYCSEG:0346		   539	545  #549
LCHK3			Near   MYCSEG:0347		   546	#550  557
LF			Word   MYCSEG:190C		   2780	 #4655
LINE1			Word   MYCSEG:0E67		   #2806  3171
LITERAL			Word   MYCSEG:14C6		   3295	 #3826	3850  3852
LOADF			Near   MYCSEG:1117		   #3183
LOADKBD			Word   MYCSEG:1146		   3157	 #3203
LPBEG			Word   MYCSEG:13CC		   #3630
LPEND			Word   MYCSEG:13DC		   #3641
MEMIO			Near   MYCSEG:07D6		   #1330
MO			Word   MYCSEG:191E		   2577	 2619  3039  3192  3226	 4292  #4675
MYARY			Near   MYCSEG:02F4		   #491
MYARYB			Near   MYCSEG:02F6		   #492
NEW_CR			Near   MYCSEG:1AB5		   #5100  5207
NEXTBLK			Word   MYCSEG:0DD3		   #2726
NOTDIG			Near   MYCSEG:063C		   1050	 1053  #1056  1059
NO_ABS			Near   MYCSEG:03EF		   651	#653
NPTR			Word   MYCSEG:16C1		   4155	 #4186
NSWAP			Word   MYCSEG:1694		   #4155  4233	4233
N_ID			Word   MYCSEG:1BA9		   3341	 #5232	5248  5250
OKDIG			Near   MYCSEG:0635		   1047	 #1052
ONE			Word   MYCSEG:1932		   2607	 4303  #4705
OPENED			Word   MYCSEG:0C96		   #2536  3168	3171
OPENF			Near   MYCSEG:0CA6		   #2547  3192
OUTBYTE			Near   MYCSEG:1A91		   5076	 #5078
OUTC			Near   MYCSEG:1AA2		   #5088  5099	5101  5103
OUTC@			Word   MYCSEG:18AB		   #4548
Turbo Assembler	 Version 3.2	    12/14/19 15:48:34	    Page 104
Symbol Table



OUTC_1P			Near   MYCSEG:1AA9		   1336	 #5091
OUTDIG			Near   MYCSEG:1A9A		   5081	 #5083
OUTITOC			Near   MYCSEG:061D		   1025	 1027  #1036
OUTWORD			Near   MYCSEG:1A8A		   #5074  5097
PB			Text   byte  ptr		   #116	 1117  5107  5110  5112	 5152  5166  5198  5209	 5213
PD			Text   dword ptr		   #114
PJUMP			Near   MYCSEG:12B0		   #3444  3455	3462
POPR			Near   MYCSEG:0196		   #249	 5105
PPPPP			Number MYCSEG:1C08		   #151	 #1194	1200  #1278  1284  #1290  1296	#1303  1309  #1313  1319  +
							   #1323  1329	#1361  1368  #1475  1477  #1480	 1486  #1490  1496  #1500 +
							   1506	 #1510	1516  #1520  1526  #1530  1536	#1540  1546  #1550  1556  +
							   #1562  1568	#1572  1578  #1582  1588  #1592	 1598  #1602  1608  #1612 +
							   1618	 #1622	1628  #1632  1638  #1642  1648	#1652  1658  #1662  1668  +
							   #1672  1678	#1686  1692  #1696  1702  #1706	 1712  #1716  1722  #1726 +
							   1732	 #1737	1743  #1747  1753  #1757  1763	#1767  1773  #1777  1783  +
							   #1786  1792	#1795  1801  #1804  1810  #1813	 1819  #1826  1832  #1836 +
							   1842	 #1846	1852  #1855  1861  #1864  1870	#1873  1879  #1882  1888  +
							   #1891  1897	#1900  1906  #1909  1915  #1918	 1924  #1927  1933  #1936 +
							   1942	 #1945	1951  #1954  1960  #1963  1969	#1973  1979  #1982  1988  +
							   #1991  1997	#2000  2006  #2010  2016  #2020	 2026  #2030  2036  #2040 +
							   2046	 #2050	2056  #2060  2066  #2071  2077	#2082  2088  #2092  2098  +
							   #2102  2108	#2112  2118  #2122  2128  #2132	 2138  #2145  2151  #2155 +
							   2161	 #2165	2171
PUSH_AL			Near   MYCSEG:051A		   #855
PW			Text   word  ptr		   #115	 229  410  481	482  485  486  793  800	 823  850  897	1031  1034+
							   1215	 1220  1335  1356  1438	 1450  5095  5195  5196
QQQQQ			Number MYCSEG:1C08		   #150	 151  1199  #1200  1283	 #1284	1295  #1296  1308  #1309  1318	  +
							   #1319  1328	#1329  1367  #1368  1476  #1477	 1485  #1486  1495  #1496 +
							   1505	 #1506	1515  #1516  1525  #1526  1535	#1536  1545  #1546  1555  +
							   #1556  1567	#1568  1577  #1578  1587  #1588	 1597  #1598  1607  #1608 +
							   1617	 #1618	1627  #1628  1637  #1638  1647	#1648  1657  #1658  1667  +
							   #1668  1677	#1678  1691  #1692  1701  #1702	 1711  #1712  1721  #1722 +
							   1731	 #1732	1742  #1743  1752  #1753  1762	#1763  1772  #1773  1782  +
							   #1783  1791	#1792  1800  #1801  1809  #1810	 1818  #1819  1831  #1832 +
							   1841	 #1842	1851  #1852  1860  #1861  1869	#1870  1878  #1879  1887  +
							   #1888  1896	#1897  1905  #1906  1914  #1915	 1923  #1924  1932  #1933 +
							   1941	 #1942	1950  #1951  1959  #1960  1968	#1969  1978  #1979  1987  +
							   #1988  1996	#1997  2005  #2006  2015  #2016	 2025  #2026  2035  #2036 +
							   2045	 #2046	2055  #2056  2065  #2066  2076	#2077  2087  #2088  2097  +
							   #2098  2107	#2108  2117  #2118  2127  #2128	 2137  #2138  2150  #2151 +
							   2160	 #2161	2170
R0@			Word   MYCSEG:18D9		   #4596
RCOMMA			Near   MYCSEG:1520		   #3874  3887	3898
REFILL			Word   MYCSEG:0E47		   #2792  2806
REGOUT			Near   MYCSEG:1AAE		   #5097  5127
RESETV			Word   MYCSEG:0104		   #188	 210
S0@			Word   MYCSEG:18CE		   #4584
SAVEAX			Word   MYCSEG:1B9D		   5196	 5215  #5219
SAVESI			Word   MYCSEG:1BA1		   5195	 5214  #5222
SAV_AX			Word   MYCSEG:1B9B		   5191	 #5218
SAV_SI			Word   MYCSEG:1B9F		   5186	 #5221
SCR@			Word   MYCSEG:18C3		   #4570
SCRH			Word   MYCSEG:0C50		   #2501
SEMI			Word   MYCSEG:15FA		   #4027
SETVAR			Near   MYCSEG:0660		   #1079  2500	2633  2978  3055  3214	3838  4166  4176  4187	4197  4365+
							   4375	 4385  4395  4405  4460	 4471  4482  4493  4504	 4515  4527  4538 +
							   4549	 4560  4571  5264
Turbo Assembler	 Version 3.2	    12/14/19 15:48:34	    Page 105
Symbol Table



SETVAR0			Near   MYCSEG:0661		   #1080  1097
SETVAR1			Near   MYCSEG:065F		   #1078  1201	2488  4218  4269  4415	4426  4437  4448
SETVAR2			Near   MYCSEG:065E		   #1077
SET_CURS		Word   MYCSEG:0C1D		   #2466
SEVAL			Word   MYCSEG:10EF		   #3168  3192	3203
SEVAL2			Word   MYCSEG:1101		   3171	 #3171
SKOBAL			Word   MYCSEG:17B5		   4007	 #4349	5286
SKOBAR			Word   MYCSEG:17AE		   3909	 3997  #4338
SMARTM			Near   MYCSEG:0430		   #697
SPACE1			Near   MYCSEG:1AB1		   #5098
SPAN@			Word   MYCSEG:1892		   2794	 #4526
START			Byte   MYCSEG:0100		   #184	 206  210  901	5295
STAT@			Word   MYCSEG:1885		   3826	 3850  #4514
STDIO			Near   MYCSEG:07BE		   #1310  2747	2822
STRCOMP			Word   MYCSEG:11EE		   #3317  3328	3355  3375
SUB4TH			Near   MYCSEG:0319		   #518	 1351  2837  3920
T2STAR			Word   MYCSEG:0B8E		   #2293  3455
T?DO			Word   MYCSEG:0914		   #1589  2600
T?EMIT			Word   MYCSEG:0D9C		   2589	 #2674
T@SWP2			Word   MYCSEG:09C0		   #1784  3306	4247
TADRP1			Word   MYCSEG:0AF3		   #2109
TADRP2			Word   MYCSEG:0AFA		   #2119
TADRSP1			Word   MYCSEG:0B02		   #2129  3524
TADRSP2			Word   MYCSEG:0B09		   #2139  3513
TAGAIN			Word   MYCSEG:1453		   #3748  3779
TAHEAD			Word   MYCSEG:13FE		   #3678  3790
TALLOT			Near   MYCSEG:14A0		   #3804  3815	3953
TAND			Word   MYCSEG:0BA9		   #2323  3455	5232
TATP1			Word   MYCSEG:0A1F		   #1898
TATP2			Word   MYCSEG:0A32		   #1916
TBEGIN			Word   MYCSEG:143B		   #3728
TBIND			Near   MYCSEG:130A		   #3485  4233
TBLFIND			Word   MYCSEG:103A		   2945	 2991  #3055  3120
TBLFIND2		Word   MYCSEG:1049		   2991	 3055  #3065
TBLIT			Near   MYCSEG:1361		   #3545
TBLWORD			Word   MYCSEG:1068		   2547	 3065  #3086  3295  4247
TBP			Word   MYCSEG:0968		   #1679
TBRAN			Word   MYCSEG:08DC		   #1527  2609	2619  3135  3678  3748
TC2I			Near   MYCSEG:11A3		   3226	 #3250
TCALL			Word   MYCSEG:1546		   #3898  3909	3942
TCAT			Word   MYCSEG:09E8		   #1843  2607	2610  3295  3498  3875	3953  4074  4111  4316	4328
TCLOSE			Near   MYCSEG:0CCB		   #2566  2820
TCLOSED			Near   MYCSEG:0CDA		   #2577  2823
TCLOSEF			Near   MYCSEG:0CCD		   #2567  3135
TCNTDO			Word   MYCSEG:0926		   #1609  2600
TCODESEMI		Word   MYCSEG:150B		   1297	 3408  3459  3496  #3862  3873	3942  4072  4109  4314	4326
TCOMMA			Near   MYCSEG:1339		   190	3306  3408  3408  3411	3422  3459  3459  3459	3459  3485  #3513 +
							   3555	 3588  3641  3667  3748	 3758  3768  3875  4017	 4111  4249
TCOMMAB			Near   MYCSEG:1348		   3433	 3455  #3524  3566  3875
TCOMP			Word   MYCSEG:13EE		   3485	 #3667	3942  3964
TCOUNT			Word   MYCSEG:0983		   #1713  2589	3224  3433  3462  3474	5232
TCR			Near   MYCSEG:0E2E		   2760	 2769  #2780  3341  3344
TCSTORE			Word   MYCSEG:09E1		   #1833  2604
TDNEGAT			Word   MYCSEG:0B20		   #2162  3229
TDO			Word   MYCSEG:091C		   #1599
TDROP			Word   MYCSEG:1982		   2232	 2590  2620  2622  2715	 2820  3017  3043  3345	 3398  3852  #4799
TDROP2			Word   MYCSEG:198C		   #4808
Turbo Assembler	 Version 3.2	    12/14/19 15:48:34	    Page 106
Symbol Table



TDUP			Word   MYCSEG:199E		   2547	 2602  2617  3224  3226	 3455  3850  #4826  5186  5187
TDUP2			Word   MYCSEG:19A7		   2600	 #4835	5179  5179
TEMIT			Word   MYCSEG:0DA5		   2607	 2617  2617  #2684  2780  2780
TEQUAL			Word   MYCSEG:19C7		   #4878
TEVAL			Near   MYCSEG:0F1B		   #2880  5274
TEXEC			Word   MYCSEG:0F61		   #2925  5139
TEXIT			Word   MYCSEG:08C3		   1299	 #1497	2232  2536  2577  2701	2705  2715  2726  2737	2747  2750+
							   2760	 2769  2780  2806  2823	 2854  2868  2880  2892	 2945  2967  3017 +
							   3043	 3086  3123  3137  3157	 3171  3192  3295  3306	 3317  3365  3385 +
							   3398	 3411  3422  3433  3444	 3462  3474  3485  3513	 3524  3555  3566 +
							   3577	 3588  3609  3620  3630	 3641  3667  3768  3779	 3790  3804  3815 +
							   3826	 3852  3862  3875  3909	 3920  3931  3942  3953	 3964  3975  3986 +
							   4007	 4027  4061  4074  4111	 4155  4249  4280  4292	 4303  4316  4328 +
							   5139	 5192  5234  5250  5274	 5286
TEXPECT			Near   MYCSEG:0D02		   #2600  2792
TEX_TR			Word   MYCSEG:08F6		   #1558  2556	2590  2622  2794  2996	3065  3097  3203  3238	3345  4233+
							   4235
TF83			Word   MYCSEG:0FB5		   #2988  5274	5286
TFETCH			Word   MYCSEG:09D3		   #1811  3041	3043  4061  5188  5189	5248
TFILL			Word   MYCSEG:0A8C		   #2007
TFIND			Near   MYCSEG:100E		   #3038  3065
TFOR			Word   MYCSEG:0901		   #1569  2588	3041  3396  3698
TFROMF			Word   MYCSEG:095D		   #1669  5201
THEN			Word   MYCSEG:13AE		   #3609  3620	3641  3718  3779  3790
THERE			Word   MYCSEG:16DA		   #4207
TI			Word   MYCSEG:1A01		   2602	 2607  2610  2612  2615	 #4937
TIB@			Word   MYCSEG:185F		   2792	 2794  2851  2904  2904	 #4481
TIF			Word   MYCSEG:1409		   #3688  3738
TJUMP			Word   MYCSEG:153A		   #3887
TKEY			Word   MYCSEG:0D92		   2602	 #2664
TLEAVE			Word   MYCSEG:0954		   #1659  2612
TLESS			Word   MYCSEG:19BE		   #4868
TLIT			Near   MYCSEG:1358		   2715	 2792  2990  2991  2992	 2993  2993  3168  3317	 3455  #3535  3599+
							   3920	 4017  5232  5248  5274
TLITSTR			Near   MYCSEG:123E		   3355	 #3365
TLOAD			Near   MYCSEG:0F32		   #2892
TLOOP			Word   MYCSEG:092E		   #1619
TLOW			Word   MYCSEG:0BCA		   #2362  2602
TM1AT			Word   MYCSEG:09F9		   #1862
TM2AT			Word   MYCSEG:0A0C		   #1880
TMAKER			Near   MYCSEG:12E2		   #3461
TMARK			Word   MYCSEG:1386		   #3577  3630	3678  3688  3698  3708
TMROT			Word   MYCSEG:1A2E		   3039	 #4982
TMUL			Word   MYCSEG:0B4F		   #2222  2232
TNAMCF			Word   MYCSEG:173C		   #4259
TNEGATE			Word   MYCSEG:0B14		   #2152  3815	3931
TNEXT			Word   MYCSEG:090B		   #1579  2589	3041  3396  3718
TNOP			Word   MYCSEG:1A7B		   2904	 4166  #5057
TNOT			Word   MYCSEG:0BB9		   #2343  2747	3455
TOAND			Word   MYCSEG:0A56		   #1952
TOBASE			Word   MYCSEG:18E8		   4316	 #4609
TOBLK			Word   MYCSEG:186D		   2822	 2967  3168  #4493
TOCONT			Word   MYCSEG:1855		   2701	 #4471
TOCSP			Word   MYCSEG:18B9		   3341	 #4560
TOCURR			Word   MYCSEG:1845		   2705	 #4460
TODBL			Word   MYCSEG:18A0		   3230	 #4538
TOEOF			Word   MYCSEG:0D75		   2536	 2577  #2633
Turbo Assembler	 Version 3.2	    12/14/19 15:48:34	    Page 107
Symbol Table



TOF			Word   MYCSEG:08ED		   #1547  2610	2614  3708
TOHERE			Word   MYCSEG:16E9		   3513	 3524  4155  #4218
TOIN@			Word   MYCSEG:1877		   2851	 3097  3341  #4503
TOK			Word   MYCSEG:0E0D		   #2760  2806
TOK2			Word   MYCSEG:0E1B		   2760	 #2763
TONAME			Near   MYCSEG:0692		   #1108  1134	1136  1138
TONAME2			Near   MYCSEG:06C8		   1135	 1137  1139  #1143
TONEMI			Word   MYCSEG:0BFD		   #2425  4231	5246
TONEPL			Word   MYCSEG:0C0B		   #2443  2547	2726  3226  3295  3848	3953
TONPTR			Word   MYCSEG:16C3		   4155	 #4187
TOOUTC			Word   MYCSEG:18AD		   2780	 #4549	5095
TOPEN			Word   MYCSEG:0C8A		   #2526  2547
TOR0			Word   MYCSEG:18DB		   #4597
TORDER			Near   MYCSEG:0C5B		   #2511  3065
TOS0			Word   MYCSEG:18D0		   #4585
TOSCR			Word   MYCSEG:18C5		   3341	 #4571
TOSPAN			Word   MYCSEG:1894		   2622	 #4527
TOSTAT			Word   MYCSEG:1887		   4328	 #4515
TOSTREEM		Word   MYCSEG:0F9A		   2726	 2854  2880  2892  #2967
TOTIB			Word   MYCSEG:1861		   2854	 2880  3168  #4482
TOTOIN			Word   MYCSEG:1879		   2794	 2967  3097  #4504
TOVER			Word   MYCSEG:1A0A		   2615	 2865  #4946
TOVER2			Word   MYCSEG:1A14		   #4955
TO_CURS			Word   MYCSEG:0C1F		   #2467
TPERF			Word   MYCSEG:0F8E		   #2957  3411	3462
TPLOOP			Word   MYCSEG:094A		   #1649  2621
TPLUS			Word   MYCSEG:0BE2		   #2389  2794	3224  3444  3498  3931	4111  5248
TPOP			Near   MYCSEG:1948		   2865	 2868  #4728  5182  5182
TPSTORE			Word   MYCSEG:0A65		   #1970  3804
TPUSH			Near   MYCSEG:1951		   2868	 2868  #4739  5179  5179
TQCOMM			Near   MYCSEG:0F54		   #2915  3043	3120
TQDUP			Word   MYCSEG:1A1D		   2945	 3120  4229  #4964  5244  5246
TQKEY			Word   MYCSEG:0D8A		   #2654
TQUIT			Near   MYCSEG:10DF		   #3157  3157	5274  5286
TRAT			Word   MYCSEG:1969		   #4769  5184
TRATPW			Word   MYCSEG:1959		   3667	 #4750
TRDROP			Word   MYCSEG:1996		   #4817
TRETF			Word   MYCSEG:08CC		   1352	 #1507	2838  3498
TRFR			Word   MYCSEG:1948		   2851	 2854  2854  2854  3043	 3230  3230  3444  3498	 3862  #4729
TROT			Word   MYCSEG:1A25		   2612	 2865  3039  #4973
TRPAT			Word   MYCSEG:08F4		   #1557  2760	2769  2806  2851  2868
TRPGT			Word   MYCSEG:1971		   2865	 2865  #4779  5184
TRPST			Word   MYCSEG:1979		   2868	 2868  #4789
TSABRT			Near   MYCSEG:120D		   2547	 2945  3183  3230  3328	 #3338
TSCOUNT			Word   MYCSEG:098C		   #1723
TSDOT			Near   MYCSEG:12FA		   3344	 3385  #3474
TSKPS			Word   MYCSEG:1A63		   3339	 3365  3385  #5036
TSKPSW			Word   MYCSEG:1A65		   #5037
TSPACE			Word   MYCSEG:0D81		   2617	 #2644	2769  5234
TSPGT			Word   MYCSEG:1A36		   #4991  5182
TSPST			Word   MYCSEG:1A3E		   #5000
TSTORE1			Word   MYCSEG:09C6		   #1793  2993	3862
TSTORE2			Word   MYCSEG:09CD		   1299	 #1802
TSTR			Word   MYCSEG:0994		   #1734  3411
TSTRCOM			Word   MYCSEG:1597		   3317	 #3953	4249
TSTRCOMMA		Near   MYCSEG:1264		   #3396
TSUBT			Word   MYCSEG:0BEF		   #2407  2612	2615  2865  3183  3875
Turbo Assembler	 Version 3.2	    12/14/19 15:48:34	    Page 108
Symbol Table



TSWAP			Word   MYCSEG:1A50		   2868	 2892  3041  3339  3779	 3790  3850  3909  #5018  5188
TSWAP2			Word   MYCSEG:1A5A		   #5027
TSWAPSTO		Word   MYCSEG:0AEB		   #2099  3609
TTOR			Word   MYCSEG:1951		   2737	 2851  2851  2851  2851	 3039  3224  3226  3444	 3498  #4740
TTWOAT			Word   MYCSEG:09DA		   1299	 #1820
TTWOMI			Word   MYCSEG:0C04		   #2434  5187
TTWOPL			Word   MYCSEG:0C12		   #2452  3875
TTYPE			Near   MYCSEG:0CE9		   #2588  3474	5234
TULESS			Word   MYCSEG:19D1		   2605	 #4888
TVBLK			Word   MYCSEG:0F47		   #2904  3097
TWCOUNT			Near   MYCSEG:0994		   #1733  3041	3065  3422
TWO			Word   MYCSEG:192A		   3815	 #4695
TWORD			Near   MYCSEG:1077		   2715	 3086  #3097  3317
TXCHG			Word   MYCSEG:1A47		   #5009
TXOR			Word   MYCSEG:0BB1		   #2333
TXORTO			Word   MYCSEG:0A4D		   #1943  4074
TZBRAN			Word   MYCSEG:08E5		   #1537  2605	2615  2747  2760  2818	2821  3120  3135  3171	3229  3339+
							   3688	 3758  3848  4229  5246
TZEQ			Word   MYCSEG:19E2		   2605	 2821  2945  3183  #4907
TZGREQ			Word   MYCSEG:19ED		   #4917
TZLESS			Word   MYCSEG:19DB		   2547	 3171  #4898
TZLIT			Word   MYCSEG:14DB		   2992	 3123  #3838
TZLIT2			Near   MYCSEG:14E9		   2992	 3838  #3848
TZNE			Word   MYCSEG:19F8		   #4927
TZSTOR			Word   MYCSEG:09B6		   #1774  2794
T_FIND			Word   MYCSEG:1005		   #3028  3043
T_SDOT			Near   MYCSEG:1255		   2763	 3375  #3385
T_W			Word   MYCSEG:105D		   #3076  3097
USERV			Number MYCSEG:068F		   229	850  897  #1106
UV0			Word   MYCSEG:010E		   #195	 196  230  231	489  1105  4586	 4598  4610
UVBASE			Word   MYCSEG:0118		   #200	 4610
UVCRSP			Word   MYCSEG:0112		   #197
UVCURS			Word   MYCSEG:011A		   #201
UVNEXTT			Word   MYCSEG:0110		   #196
UVR0			Word   MYCSEG:0116		   #199	 230  4598
UVS0			Word   MYCSEG:0114		   #198	 231  4586
UVSTAT			Word   MYCSEG:1889		   898	#4516
VEMIT			Word   MYCSEG:070B		   #1201  1352
VEXEC			Near   MYCSEG:04FD		   205	209  #837  900
VPAG			Byte   MYCSEG:1A87		   222	1393  1403  #5069
V_ID			Near   MYCSEG:1BC0		   5191	 #5244
WCOMMA			Word   MYCSEG:1293		   #3422  3462	3462  3462
X0EXIT			Near   MYCSEG:028C		   #414	 1487
X0LESS			Near   MYCSEG:01E4		   #308	 4898
X2CHG			Near   MYCSEG:04C8		   #800	 806
X2PWR			Near   MYCSEG:0355		   #559	 2182
X2SLS			Near   MYCSEG:0367		   #570	 2283
X2STAR			Near   MYCSEG:036C		   #573	 2293
X2STAR_			Near   MYCSEG:036E		   565	#574
X3TOR			Near   MYCSEG:01AD		   #271
X5ARY			Near   MYCSEG:03DD		   #644
X?COMP			Near   MYCSEG:1323		   #3497  4086	4098
X?CS			Near   MYCSEG:086B		   #1423
X?EMIT			Near   MYCSEG:07EA		   #1339  2674
X?SS			Near   MYCSEG:0868		   #1421
X@PLSTO			Near   MYCSEG:04D1		   #807	 1925
X@PLUS			Near   MYCSEG:04C3		   #798	 1898  1916
Turbo Assembler	 Version 3.2	    12/14/19 15:48:34	    Page 109
Symbol Table



X@UVAR			Near   MYCSEG:0681		   #1098  4620
XABORT			Near   MYCSEG:0155		   #208	 3147
XABS			Near   MYCSEG:0233		   #355	 2243
XADRSP1			Near   MYCSEG:0887		   #1443  2129
XADRSP2			Near   MYCSEG:0880		   #1438  2139
XALLOTM			Near   MYCSEG:04B9		   #791	 1934
XALPHA			Near   MYCSEG:04EF		   #828	 2273
XAND			Near   MYCSEG:023E		   #361	 2323
XATSWP2			Near   MYCSEG:04CD		   #804	 1784
XBARY			Near   MYCSEG:03E3		   #647
XBASE			Near   MYCSEG:178B		   3248	 3260  3271  3282  #4315
XBLANK			Near   MYCSEG:07DC		   #1332  2644
XBLIT			Near   MYCSEG:0519		   #854	 3545
XBP			Near   MYCSEG:019F		   #262	 1679
XBRAN			Near   MYCSEG:01F8		   #320	 333  348  1527
XBR_DR			Near   MYCSEG:01F7		   278	313  #319  324
XBUF			Word   MYCSEG:0EF6		   #2865  3168
XBYE			Near   MYCSEG:08A9		   #1466  1517
XC2I			Near   MYCSEG:05ED		   #1005  3250
XC@SWAP			Near   MYCSEG:0870		   #1427  2089
XCARRY			Near   MYCSEG:01E6		   #309
XCAT			Near   MYCSEG:0310		   #512	 1843
XCHK			Near   MYCSEG:033A		   #541	 4868  4878
XCLOSE			Near   MYCSEG:073F		   #1229  2566
XCLRSCR			Near   MYCSEG:0854		   #1409  2263
XCMOVE			Near   MYCSEG:0424		   #690	 1980
XCMOVUP			Near   MYCSEG:0436		   #701	 1989
XCNTDO			Near   MYCSEG:03FC		   #662	 1609
XCONT			Near   MYCSEG:01CF		   291	#296  1629
XCOUNT			Near   MYCSEG:030D		   #509	 1713
XCSTOR			Near   MYCSEG:02B0		   #438	 1833
XDABS			Near   MYCSEG:03E8		   #650	 2253
XDIV			Near   MYCSEG:06F3		   #1179  2212
XDIVMOD			Near   MYCSEG:06EB		   #1172  2192
XDMINUS			Near   MYCSEG:03BF		   #623	 2416
XDNEGAT			Near   MYCSEG:03EC		   #652	 2162
XDO			Near   MYCSEG:01F2		   #316	 1599
XDOP			Near   MYCSEG:01A3		   #265	 1589
XDOS1			Near   MYCSEG:0741		   #1230
XDPLUS			Near   MYCSEG:03C2		   #624	 2398
XDROP			Near   MYCSEG:0275		   289	378  #397  424	431  437  441  479  484	 488  677  719	852  1082 +
							   1157	 1224  1338  1390  1407	 1417  1436  1456  1460	 1464  4799  5129
XDROP2			Near   MYCSEG:02E1		   #478	 4808
XDROPH1			Near   MYCSEG:0EBE		   1275	 2567  #2837
XDUP			Near   MYCSEG:0230		   #353	 4826
XDUP2			Near   MYCSEG:02CC		   #461	 4835
XEMIT			Near   MYCSEG:07E0		   #1335  1340	1343  2684
XEXEC			Near   MYCSEG:050D		   #846	 889  899  2925
XEXECUT			Word   MYCSEG:0DE9		   #2737
XEXIT			Near   MYCSEG:0206		   294	#327  417  1476	 1497
XEXQCOM			Near   MYCSEG:0552		   890	#897
XEX_TR			Near   MYCSEG:1ABE		   1558	 #5105
XFETCH			Near   MYCSEG:0302		   #500	 508  1811
XFILL			Near   MYCSEG:0446		   #712	 2007
XFNAME			Near   MYCSEG:06B2		   #1131  2697
XFOR			Near   MYCSEG:01B1		   #275	 1569
XFROMF			Near   MYCSEG:019D		   #253	 1669
Turbo Assembler	 Version 3.2	    12/14/19 15:48:34	    Page 110
Symbol Table



XHI			Near   MYCSEG:0312		   #513
XI			Near   MYCSEG:03F2		   #656	 4937
XINTER			Near   MYCSEG:0ECE		   #2850  2880	2892  3168
XJMP			Near   MYCSEG:021E		   #341	 3120  3157
XKEY			Near   MYCSEG:0802		   #1355  2664
XLEAVDR			Near   MYCSEG:0202		   #325
XLEAVE			Near   MYCSEG:0203		   301	#326  334  1659
XLIT			Near   MYCSEG:051D		   #857	 3535
XLO			Near   MYCSEG:0314		   #514	 2362
XLOOP			Near   MYCSEG:020D		   #332	 1619
XM1STO			Near   MYCSEG:02E6		   #482	 1853
XM1STOR			Near   MYCSEG:02A6		   #432	 1764
XM2STO			Near   MYCSEG:02E4		   #481	 1871
XMINS@			Near   MYCSEG:04B5		   #789	 1862  1880
XMOD			Near   MYCSEG:06FA		   #1185  2202
XMOVE			Near   MYCSEG:042D		   #696	 1998
XMROT			Near   MYCSEG:02C6		   #457	 4982
XMTEXT			Near   MYCSEG:0487		   #758	 2017
XMULT2			Near   MYCSEG:06E2		   #1165  2222
XNAMCF			Near   MYCSEG:0560		   #903	 4259
XNEGAT2			Near   MYCSEG:023C		   356	#360
XNEGATE			Near   MYCSEG:0237		   #357	 2152
XNEXT			Near   MYCSEG:01D5		   #300	 1579
XNIP			Near   MYCSEG:02DE		   #475	 4853
XNONA2			Near   MYCSEG:0547		   #891	 2915
XNONAME			Near   MYCSEG:054E		   #894	 2915  3485  3728  3738
XNOT			Near   MYCSEG:023A		   #359	 2343
XOF			Near   MYCSEG:0224		   #345	 1547
XONEMI			Near   MYCSEG:032F		   #533	 2425
XOPEN			Near   MYCSEG:0739		   #1226  2526
XORE			Near   MYCSEG:0243		   #364	 2380
XOVER			Near   MYCSEG:02BD		   #449	 4946
XOVER2			Near   MYCSEG:03B8		   #619	 4955
XP1STO			Near   MYCSEG:02EC		   #486	 1889
XP2STO			Near   MYCSEG:02EA		   #485	 1907
XPACK			Near   MYCSEG:04DF		   #816	 2353
XPC1PLS			Near   MYCSEG:0221		   #343
XPC2PLS			Near   MYCSEG:0220		   #342
XPC2_DR			Near   MYCSEG:0274		   314	349  #396
XPERF			Near   MYCSEG:0507		   #843	 2957
XPLOOP			Near   MYCSEG:01FD		   #323	 1649
XPLUS			Near   MYCSEG:026B		   #389	 492  2389
XPSTORE			Near   MYCSEG:08A3		   #1461  1970
XQARY			Near   MYCSEG:03DF		   #645	 5047  5070
XQCOMM			Near   MYCSEG:0541		   #887	 2915  3500
XQDUP			Near   MYCSEG:022C		   #351	 4964
XQEXEC			Near   MYCSEG:0509		   #844	 2935
XQKEY			Near   MYCSEG:074A		   #1236  2654
XQKEY2			Near   MYCSEG:0757		   #1245
XRAT			Near   MYCSEG:037C		   #584	 4769
XRATPB			Near   MYCSEG:0388		   #591	 4760
XRATPW			Near   MYCSEG:0382		   #587	 4750
XRDROP			Near   MYCSEG:0209		   #328	 474  4817  5108
XRESET			Near   MYCSEG:0176		   208	#225
XRET4TH			Near   MYCSEG:0195		   #248	 1507
XRFR			Near   MYCSEG:02D7		   #472	 4729
XROT			Near   MYCSEG:02C1		   #453	 4973
Turbo Assembler	 Version 3.2	    12/14/19 15:48:34	    Page 111
Symbol Table



XRPGT			Near   MYCSEG:0252		   #373	 4779
XRPST			Near   MYCSEG:0259		   #377	 4789
XSCANB			Near   MYCSEG:046B		   #740	 2047
XSCANI			Near   MYCSEG:04A2		   #777	 2037
XSCANL			Near   MYCSEG:0471		   #744	 2027
XSCANW			Near   MYCSEG:0465		   #737	 2057
XSCAT			Near   MYCSEG:034E		   #554	 1723
XSETUV			Near   MYCSEG:0512		   #850
XSHIFT			Near   MYCSEG:0359		   #562	 2172
XSKPS			Near   MYCSEG:0397		   #600	 5036
XSKPSW			Near   MYCSEG:038E		   #595	 5037
XSMG			Near   MYCSEG:163A		   4039	 4050  #4073
XSPGT			Near   MYCSEG:024D		   #370	 4991
XSPST			Near   MYCSEG:0256		   #375	 5000
XSTATE			Near   MYCSEG:17A1		   #4327  4338	4349
XSTORE1			Near   MYCSEG:0298		   #422	 427  1793
XSTORE2			Near   MYCSEG:0294		   #419	 1802
XSTOREA			Near   MYCSEG:029C		   #425
XSTR			Near   MYCSEG:025F		   #380	 1693
XSTRP			Near   MYCSEG:025D		   #379	 1703
XSTRPLS			Near   MYCSEG:0414		   #679	 1754
XSTRSTO			Near   MYCSEG:041E		   #684	 1744
XSUBT			Near   MYCSEG:0269		   #388	 2407
XSWAP			Near   MYCSEG:02BA		   #446	 5018
XSWAP2			Near   MYCSEG:03AF		   #614	 5027
XSWPSTO			Near   MYCSEG:06D1		   #1152  2099
XTARY			Near   MYCSEG:03DB		   #643
XTIMES			Near   MYCSEG:01C9		   #290	 1639
XTOAND			Near   MYCSEG:0897		   #1453  1952
XTOF_INI		Near   MYCSEG:015C		   204	#212
XTOORE			Near   MYCSEG:089D		   #1457  1961
XTOR			Near   MYCSEG:01C1		   #285	 299  4740
XTOUVAR			Near   MYCSEG:067B		   #1095
XTOUVR			Near   MYCSEG:067C		   #1096  4585	4597  4609
XTUCK			Near   MYCSEG:02D2		   #467	 4844
XTWOAT			Near   MYCSEG:02FF		   #499	 1820
XTWOATA			Near   MYCSEG:0307		   #504
XTWOMI			Near   MYCSEG:032E		   #532	 2434
XUCHK			Near   MYCSEG:0333		   #537	 4888
XUMSLSM			Near   MYCSEG:03CD		   #633	 2303
XUMSTAR			Near   MYCSEG:0373		   #577	 2313
XUNPACK			Near   MYCSEG:04D8		   #812	 2371
XUVAR@			Near   MYCSEG:0675		   #1092
XUVAR@0			Near   MYCSEG:0676		   #1093  4584	4596  4608
XUVAR@@			Near   MYCSEG:066E		   #1089
XVBLK			Near   MYCSEG:0537		   #879	 2904
XWARY			Near   MYCSEG:03E1		   #646
XWCOUNT			Near   MYCSEG:06DB		   #1159  1734
XXCHG			Near   MYCSEG:02B5		   #443	 5009
XXORTO			Near   MYCSEG:02A1		   #428	 1943
XXORX			Near   MYCSEG:0248		   #367	 2333
XY_GOTO			Near   MYCSEG:0845		   #1401  2467	2478
XZBRAN			Near   MYCSEG:01EB		   #312	 1537
XZCHK			Near   MYCSEG:033E		   #544	 4907  4917  4927
XZSTOR			Near   MYCSEG:02AA		   #434	 1774
X_CO			Near   MYCSEG:03A9		   #610	 1557
X_FIND			Near   MYCSEG:056B		   #909	 3028
Turbo Assembler	 Version 3.2	    12/14/19 15:48:34	    Page 112
Symbol Table



X_SET			Near   MYCSEG:0516		   845	#851
X_TOR			Near   MYCSEG:01C3		   #287
X_W			Near   MYCSEG:05B8		   #969	 3076
ZCLOSE			Near   MYCSEG:10BE		   #3134  5286
ZCOMMA			Word   MYCSEG:1368		   #3555  3577
ZCOMMAB			Word   MYCSEG:1376		   #3566
ZR			Word   MYCSEG:1924		   2536	 2620  2726  2780  2794	 2822  2880  2880  2892	 2995  3203  3226 +
							   3555	 3566  4280  #4685
ZZCLOSE			Word   MYCSEG:0E7C		   #2817  2838
ZZDBG			Word   MYCSEG:1B25		   #5178  5200
_0MI			Near   MYCSEG:0330		   #534
_2TOR			Near   MYCSEG:01BD		   #283
_3TOR			Near   MYCSEG:01B7		   273	#281
_@PLUS			Near   MYCSEG:04C6		   #799	 810
_ABORT			Near   MYCSEG:1C11		   188	#5286
_BKEY			Near   MYCSEG:0815		   #1369
_CALL			Near   MYCSEG:0402		   #666	 1369
_DNEGAT			Near   MYCSEG:0188		   #238	 623  652
_DOES			Near   MYCSEG:027A		   #401	 1298  2700  2704  3410	 3461  3497  3874  4073	 4110  4315  4327 +
							   4715
_DOP1			Near   MYCSEG:01A4		   #266	 318
_EMIT1			Near   MYCSEG:07F3		   1287	 1310  1320  #1345
_EMIT2			Near   MYCSEG:07FA		   1330	 #1350
_EX			Near   MYCSEG:0286		   #409	 848  5107  5110  5112	5152  5166  5198  5209	5213
_EX2			Near   MYCSEG:050F		   #848	 877
_FILLER			Near   MYCSEG:0442		   #709	 2067  2078
_GS_KE			Near   MYCSEG:07AD		   #1298  1310	1320  1330
_HND_AT			Near   MYCSEG:0721		   #1212  2511	2833
_HND_GT			Near   MYCSEG:0713		   #1204  1251
_HND_TO			Near   MYCSEG:072C		   #1219  2511	2833
_ILOOP			Near   MYCSEG:03F4		   #657
_INIT			Near   MYCSEG:1BF8		   187	#5274
_INT_10			Near   MYCSEG:081C		   221	#1374  1380  1388  1395	 1405  1415
_KEY1			Near   MYCSEG:0817		   1286	 1310  1330  #1370
_KEY2			Near   MYCSEG:075F		   #1251  1320
_L5			Near   MYCSEG:05B5		   960	#965
_L6			Near   MYCSEG:05B7		   964	#967
_M1			Near   MYCSEG:0329		   #528	 4675
_MINS@			Near   MYCSEG:04BC		   #793	 809
_MOVE1			Near   MYCSEG:0427		   #691	 698  707
_MOVER			Near   MYCSEG:0408		   #671	 690  696  701
_MOVEU			Near   MYCSEG:0439		   699	#702
_MOVEX			Near   MYCSEG:042C		   #695
_MUL			Near   MYCSEG:064F		   1061	 #1067
_NEXT			Near   MYCSEG:0285		   263	306  310  321  330  344	 352  354  360	363  366  369  372  391	  +
							   398	#408  416  445	466  471  477  502  516	 522  527  535	569  572  +
							   576	582  612  631  654  669	 820  826  869	1003  1142  1170  1190	  +
							   1399	 1442  5057  5154  5168
_NTR			Near   MYCSEG:1B03		   5139	 #5150	5286
_PLUS			Near   MYCSEG:026C		   #390
_PSH2			Near   MYCSEG:052A		   865	#868  875  892
_PUSHAX			Near   MYCSEG:0283		   374	#406  448  452	456  660  664  815  859	 1043  1088  1101  1163	  +
							   1217	 1243  1249  1425
_PUSHDI			Near   MYCSEG:0282		   #405
_SCANER			Near   MYCSEG:0450		   #721	 737  740  744
_STRCMP			Near   MYCSEG:05B1		   764	#962
_STREQU			Near   MYCSEG:05A6		   752	#954
Turbo Assembler	 Version 3.2	    12/14/19 15:48:34	    Page 113
Symbol Table



_STREQU1		Near   MYCSEG:05A9		   929	#956
_SWAP2Z			Near   MYCSEG:03B2		   #615	 621
_SWAPAX			Near   MYCSEG:0284		   386	#407  460  553	617  641  735  775  787	 796  802  835	952  1150 +
							   1177	 1183  1234  1358
_TR			Near   MYCSEG:1B12		   5139	 #5164
_V_PAGE			Near   MYCSEG:0821		   #1378
_XSKPS			Near   MYCSEG:03A2		   584	587  595  #606
_XSKPS_0		Near   MYCSEG:03A0		   591	600  #605
_XSTRST			Near   MYCSEG:0422		   683	#687
_ZERO			Near   MYCSEG:0323		   #524	 4685

Macro Name						   Cref	(defined at #)

DROPREG							   #124	 288  423  430	436  440  483  487  676	 718  851  1081	 1156	  +
							   1223	 1337  1389  1406  1416	 1435  1455  1459  1463	 5128
DSTR							   #160	 2550  2764  3185  3232
DSTR2							   #153	 1195  1279  1291  1304	 1314  1324  1362  1481	 1491  1501  1511 +
							   1521	 1531  1541  1551  1563	 1573  1583  1593  1603	 1613  1623  1633 +
							   1643	 1653  1663  1673  1687	 1697  1707  1717  1727	 1738  1748  1758 +
							   1768	 1778  1787  1796  1805	 1814  1827  1837  1847	 1856  1865  1874 +
							   1883	 1892  1901  1910  1919	 1928  1937  1946  1955	 1964  1974  1983 +
							   1992	 2001  2011  2021  2031	 2041  2051  2061  2072	 2083  2093  2103 +
							   2113	 2123  2133  2146  2156	 2166  2176  2186  2196	 2206  2216  2226 +
							   2237	 2247  2257  2267  2277	 2287  2297  2307  2317	 2327  2337  2347 +
							   2356	 2365  2374  2383  2392	 2401  2410  2419  2428	 2437  2446  2460 +
							   2472	 2482  2494  2505  2520	 2530  2541  2551  2560	 2571  2582  2594 +
							   2626	 2638  2648  2658  2668	 2678  2691  2709  2720	 2731  2741  2754 +
							   2765	 2774  2786  2800  2811	 2827  2844  2859  2874	 2886  2898  2909 +
							   2919	 2929  2939  2951  2961	 2972  2982  3000  3011	 3022  3032  3049 +
							   3059	 3070  3080  3091  3103	 3114  3128  3141  3151	 3162  3177  3186 +
							   3197	 3208
NEXT							   #130	 305  444  465	470  476  501  515  521	 526  534  568	571  575  +
							   581	611  630  653  668  819	 825  868  1002	 1141  1169  1189  1398	  +
							   1441	 5153  5167
NF							   #164	 1193  1277  1289  1302	 1312  1322  1360  1479	 1489  1499  1509 +
							   1519	 1529  1539  1549  1561	 1571  1581  1591  1601	 1611  1621  1631 +
							   1641	 1651  1661  1671  1685	 1695  1705  1715  1725	 1736  1746  1756 +
							   1766	 1776  1785  1794  1803	 1812  1825  1835  1845	 1854  1863  1872 +
							   1881	 1890  1899  1908  1917	 1926  1935  1944  1953	 1962  1972  1981 +
							   1990	 1999  2009  2019  2029	 2039  2049  2059  2070	 2081  2091  2101 +
							   2111	 2121  2131  2144  2154	 2164  2174  2184  2194	 2204  2214  2224 +
							   2235	 2245  2255  2265  2275	 2285  2295  2305  2315	 2325  2335  2345 +
							   2354	 2363  2372  2381  2390	 2399  2408  2417  2426	 2435  2444  2458 +
							   2470	 2480  2492  2503  2518	 2528  2539  2558  2569	 2580  2592  2624 +
							   2636	 2646  2656  2666  2676	 2689  2729  2739  2752	 2772  2784  2798 +
							   2809	 2825  2842  2857  2872	 2884  2896  2907  2917	 2927  2937  2949 +
							   2959	 2970  2980  2998  3009	 3020  3030  3047  3057	 3068  3078  3089 +
							   3101	 3112  3126  3139  3149	 3160  3175  3195  3206	 3216  3240  3252 +
							   3263	 3274
NFI							   #171	 2707  2718  3287  3320	 3347  3367  3591  3601	 3612  3670  3680 +
							   3690	 3700  3710  3720  3730	 3740  3750  3760  3771	 3782  3818  3934 +
							   3989	 3999  4009  4019  4078	 4090  4114  4125  4136	 4341  5131
NUM							   #133
PUSHREG							   #118	 447  451  455	659  814  858  1042  1087  1100	 1162  1216  1242 +
							   1248	 1424
SJMP							   #127	 185  293  298	507  1342
SWAPREG							   #121	 385  459  552	616  640  734  774  786	 795  801  834	951  1149 +
Turbo Assembler	 Version 3.2	    12/14/19 15:48:34	    Page 114
Symbol Table



							   1176	 1182  1233  1357
TRACE_OFF						   #141	 5111  5151  5197  5212
TRACE_ON						   #145	 5165  5208

Groups & Segments	Bit Size Align	Combine	Class	   Cref	(defined at #)

MYCSEG			16  1C21 Para	none		   #179	 180  180  180
